(istock_attributes
StockAttributes
p1
(dp2
S'sector'
p3
S'Healthcare'
p4
sS'name'
p5
S'Agilent Technolog'
p6
sS'float_shares'
p7
S'   332,218,000'
p8
sS'symbol'
p9
S'A'
sS'start_date'
p10
S'1999-11-18'
p11
sS'currency'
p12
S'USD'
p13
sS'industry'
p14
S'Medical Laboratories & Research'
p15
sS'shares_outstanding'
p16
S'   333,512,000'
p17
sb.