(istock_attributes
StockAttributes
p1
(dp2
S'sector'
p3
S'Basic Materials'
p4
sS'name'
p5
S'Alcoa Inc. Common'
p6
sS'float_shares'
p7
S'  1,175,510,000'
p8
sS'symbol'
p9
S'AA'
p10
sS'start_date'
p11
S'1962-01-02'
p12
sS'currency'
p13
S'USD'
p14
sS'industry'
p15
S'Aluminum'
p16
sS'shares_outstanding'
p17
S'  1,178,822,000'
p18
sb.