(istock_attributes
StockAttributes
p1
(dp2
S'sector'
p3
S'Services'
p4
sS'name'
p5
S'American Airlines'
p6
sS'float_shares'
p7
S'   708,455,000'
p8
sS'symbol'
p9
S'AAL'
p10
sS'start_date'
p11
S'2005-NaN-27'
p12
sS'currency'
p13
S'USD'
p14
sS'industry'
p15
S'Major Airlines'
p16
sS'shares_outstanding'
p17
S'   717,263,000'
p18
sb.