(istock_attributes
StockAttributes
p1
(dp2
S'sector'
p3
S'Basic Materials'
p4
sS'name'
p5
S'ANGLO AMERICAN'
p6
sS'float_shares'
p7
S'  1,098,684,000'
p8
sS'symbol'
p9
S'AAL.L'
p10
sS'start_date'
p11
S'1999-05-24'
p12
sS'currency'
p13
S'GBP'
p14
sS'industry'
p15
S'Industrial Metals & Minerals'
p16
sS'shares_outstanding'
p17
S'  1,283,000,000'
p18
sb.