(istock_attributes
StockAttributes
p1
(dp2
S'sector'
p3
S'Consumer Goods'
p4
sS'name'
p5
S'Apple Inc.'
p6
sS'float_shares'
p7
S'  5,856,159,000'
p8
sS'symbol'
p9
S'AAPL'
p10
sS'start_date'
p11
S'1980-12-12'
p12
sS'currency'
p13
S'USD'
p14
sS'industry'
p15
S'Electronic Equipment'
p16
sS'shares_outstanding'
p17
S'  5,864,839,000'
p18
sb.