(istock_attributes
StockAttributes
p1
(dp2
S'sector'
p3
S'Healthcare'
p4
sS'name'
p5
S'AbbVie Inc. Commo'
p6
sS'float_shares'
p7
S'  1,589,518,000'
p8
sS'symbol'
p9
S'ABBV'
p10
sS'start_date'
p11
S'2013-01-02'
p12
sS'currency'
p13
S'USD'
p14
sS'industry'
p15
S'Drug Manufacturers - Major'
p16
sS'shares_outstanding'
p17
S'  1,591,699,000'
p18
sb.