(istock_attributes
StockAttributes
p1
(dp2
S'sector'
p3
S'Services'
p4
sS'name'
p5
S'AmerisourceBergen'
p6
sS'float_shares'
p7
S'   211,847,000'
p8
sS'symbol'
p9
S'ABC'
p10
sS'start_date'
p11
S'1995-04-04'
p12
sS'currency'
p13
S'USD'
p14
sS'industry'
p15
S'Drugs Wholesale'
p16
sS'shares_outstanding'
p17
S'   224,087,000'
p18
sb.