(istock_attributes
StockAttributes
p1
(dp2
S'sector'
p3
S'Consumer Goods'
p4
sS'name'
p5
S'ASSOCIAT BRIT FOO'
p6
sS'float_shares'
p7
S'   320,815,000'
p8
sS'symbol'
p9
S'ABF.L'
p10
sS'start_date'
p11
S'1988-07-01'
p12
sS'currency'
p13
S'GBp'
p14
sS'industry'
p15
S'Food - Major Diversified'
p16
sS'shares_outstanding'
p17
S'   788,611,000'
p18
sb.