(istock_attributes
StockAttributes
p1
(dp2
S'sector'
p3
S'Consumer Goods'
p4
sS'name'
p5
S'ANHEUS.-BUSCH INB'
p6
sS'float_shares'
p7
S'   789,023,000'
p8
sS'symbol'
p9
S'ABI.BR'
p10
sS'start_date'
p11
S'2000-12-01'
p12
sS'currency'
p13
S'EUR'
p14
sS'industry'
p15
S'Beverages - Brewers'
p16
sS'shares_outstanding'
p17
S'  1,606,842,000'
p18
sb.