(istock_attributes
StockAttributes
p1
(dp2
S'sector'
p3
S'Financial'
p4
sS'name'
p5
S'Ace Limited Commo'
p6
sS'float_shares'
p7
S'   329,401,000'
p8
sS'symbol'
p9
S'ACE'
p10
sS'start_date'
p11
S'1993-03-26'
p12
sS'currency'
p13
S'USD'
p14
sS'industry'
p15
S'Property & Casualty Insurance'
p16
sS'shares_outstanding'
p17
S'   332,111,000'
p18
sb.