(istock_attributes
StockAttributes
p1
(dp2
S'sector'
p3
S'Technology'
p4
sS'name'
p5
S'Accenture plc. Cl'
p6
sS'float_shares'
p7
S'   624,499,000'
p8
sS'symbol'
p9
S'ACN'
p10
sS'start_date'
p11
S'2001-07-19'
p12
sS'currency'
p13
S'USD'
p14
sS'industry'
p15
S'Information Technology Services'
p16
sS'shares_outstanding'
p17
S'   627,505,000'
p18
sb.