(istock_attributes
StockAttributes
p1
(dp2
S'sector'
p3
S'Healthcare'
p4
sS'name'
p5
S'Actavis plc Ordin'
p6
sS'float_shares'
p7
S'   263,359,000'
p8
sS'symbol'
p9
S'ACT'
p10
sS'start_date'
p11
S'1993-02-17'
p12
sS'currency'
p13
S'USD'
p14
sS'industry'
p15
S'Drugs - Generic'
p16
sS'shares_outstanding'
p17
S'   264,260,000'
p18
sb.