(istock_attributes
StockAttributes
p1
(dp2
S'sector'
p3
S'Financial'
p4
sS'name'
p5
S'ADMIRAL GROUP'
p6
sS'float_shares'
p7
S'   209,364,000'
p8
sS'symbol'
p9
S'ADM.L'
p10
sS'start_date'
p11
S'2004-09-23'
p12
sS'currency'
p13
S'GBP'
p14
sS'industry'
p15
S'Property & Casualty Insurance'
p16
sS'shares_outstanding'
p17
S'   258,595,000'
p18
sb.