(istock_attributes
StockAttributes
p1
(dp2
S'sector'
p3
S'Financial'
p4
sS'name'
p5
S'ABERDEEN ASSET MG'
p6
sS'float_shares'
p7
S'   966,222,000'
p8
sS'symbol'
p9
S'ADN.L'
p10
sS'start_date'
p11
S'1991-03-28'
p12
sS'currency'
p13
S'GBp'
p14
sS'industry'
p15
S'Asset Management'
p16
sS'shares_outstanding'
p17
S'  1,145,900,000'
p18
sb.