(istock_attributes
StockAttributes
p1
(dp2
S'sector'
p3
S'Services'
p4
sS'name'
p5
S'Alliance Data Sys'
p6
sS'float_shares'
p7
S'    56,173,000'
p8
sS'symbol'
p9
S'ADS'
p10
sS'start_date'
p11
S'2001-06-15'
p12
sS'currency'
p13
S'USD'
p14
sS'industry'
p15
S'Business Services'
p16
sS'shares_outstanding'
p17
S'    57,700,000'
p18
sb.