(istock_attributes
StockAttributes
p1
(dp2
S'sector'
p3
S'Consumer Goods'
p4
sS'name'
p5
S'ADIDAS N'
p6
sS'float_shares'
p7
S'           0'
p8
sS'symbol'
p9
S'ADS.DE'
p10
sS'start_date'
p11
S'2000-01-03'
p12
sS'currency'
p13
S'EUR'
p14
sS'industry'
p15
S'Textile - Apparel Footwear & Accessories'
p16
sS'shares_outstanding'
p17
S'   209,216,000'
p18
sb.