(istock_attributes
StockAttributes
p1
(dp2
S'sector'
p3
S'Utilities'
p4
sS'name'
p5
S'American Electric'
p6
sS'float_shares'
p7
S'   488,110,000'
p8
sS'symbol'
p9
S'AEP'
p10
sS'start_date'
p11
S'1970-01-02'
p12
sS'currency'
p13
S'USD'
p14
sS'industry'
p15
S'Electric Utilities'
p16
sS'shares_outstanding'
p17
S'   489,240,000'
p18
sb.