(istock_attributes
StockAttributes
p1
(dp2
S'sector'
p3
S'Financial'
p4
sS'name'
p5
S'AFLAC Incorporate'
p6
sS'float_shares'
p7
S'   441,741,000'
p8
sS'symbol'
p9
S'AFL'
p10
sS'start_date'
p11
S'1984-07-19'
p12
sS'currency'
p13
S'USD'
p14
sS'industry'
p15
S'Accident & Health Insurance'
p16
sS'shares_outstanding'
p17
S'   450,498,000'
p18
sb.