(istock_attributes
StockAttributes
p1
(dp2
S'sector'
p3
S'Services'
p4
sS'name'
p5
S'AGGREKO'
p6
sS'float_shares'
p7
S'   234,703,000'
p8
sS'symbol'
p9
S'AGK.L'
p10
sS'start_date'
p11
S'1997-09-29'
p12
sS'currency'
p13
S'GBP'
p14
sS'industry'
p15
S'Business Services'
p16
sS'shares_outstanding'
p17
S'   253,180,000'
p18
sb.