(istock_attributes
StockAttributes
p1
(dp2
S'sector'
p3
S'Healthcare'
p4
sS'name'
p5
S'Allergan, Inc. Co'
p6
sS'float_shares'
p7
S'   267,242,000'
p8
sS'symbol'
p9
S'AGN'
p10
sS'start_date'
p11
S'1989-06-22'
p12
sS'currency'
p13
S'USD'
p14
sS'industry'
p15
S'Drug Manufacturers - Other'
p16
sS'shares_outstanding'
p17
S'   296,899,000'
p18
sb.