(istock_attributes
StockAttributes
p1
(dp2
S'sector'
p3
S'Services'
p4
sS'name'
p5
S'ASHTEAD GROUP'
p6
sS'float_shares'
p7
S'   485,568,000'
p8
sS'symbol'
p9
S'AHT.L'
p10
sS'start_date'
p11
S'1988-07-01'
p12
sS'currency'
p13
S'GBP'
p14
sS'industry'
p15
S'Rental & Leasing Services'
p16
sS'shares_outstanding'
p17
S'   501,325,000'
p18
sb.
