(istock_attributes
StockAttributes
p1
(dp2
S'sector'
p3
S'Industrial Goods'
p4
sS'name'
p5
S'AIRBUS GROUP'
p6
sS'float_shares'
p7
S'           0'
p8
sS'symbol'
p9
S'AIR.PA'
p10
sS'start_date'
p11
S'2001-09-03'
p12
sS'currency'
p13
S'EUR'
p14
sS'industry'
p15
S'Aerospace/Defense Products & Services'
p16
sS'shares_outstanding'
p17
S'           0'
p18
sb.