(istock_attributes
StockAttributes
p1
(dp2
S'sector'
p3
S'Financial'
p4
sS'name'
p5
S'Assurant, Inc. Co'
p6
sS'float_shares'
p7
S'    70,682,000'
p8
sS'symbol'
p9
S'AIZ'
p10
sS'start_date'
p11
S'2004-02-05'
p12
sS'currency'
p13
S'USD'
p14
sS'industry'
p15
S'Accident & Health Insurance'
p16
sS'shares_outstanding'
p17
S'    72,182,000'
p18
sb.