(istock_attributes
StockAttributes
p1
(dp2
S'sector'
p3
S'Financial'
p4
sS'name'
p5
S'Allstate Corporat'
p6
sS'float_shares'
p7
S'   402,643,000'
p8
sS'symbol'
p9
S'ALL'
p10
sS'start_date'
p11
S'1993-06-03'
p12
sS'currency'
p13
S'USD'
p14
sS'industry'
p15
S'Property & Casualty Insurance'
p16
sS'shares_outstanding'
p17
S'   419,433,000'
p18
sb.