(istock_attributes
StockAttributes
p1
(dp2
S'sector'
p3
S'Industrial Goods'
p4
sS'name'
p5
S'ALSTOM'
p6
sS'float_shares'
p7
S'   217,017,000'
p8
sS'symbol'
p9
S'ALO.PA'
p10
sS'start_date'
p11
S'2005-08-03'
p12
sS'currency'
p13
S'EUR'
p14
sS'industry'
p15
S'Diversified Machinery'
p16
sS'shares_outstanding'
p17
S'   308,960,000'
p18
sb.