(istock_attributes
StockAttributes
p1
(dp2
S'sector'
p3
S'Technology'
p4
sS'name'
p5
S'Applied Materials'
p6
sS'float_shares'
p7
S'  1,212,436,000'
p8
sS'symbol'
p9
S'AMAT'
p10
sS'start_date'
p11
S'1990-01-02'
p12
sS'currency'
p13
S'USD'
p14
sS'industry'
p15
S'Semiconductor Equipment & Materials'
p16
sS'shares_outstanding'
p17
S'  1,218,394,000'
p18
sb.