(istock_attributes
StockAttributes
p1
(dp2
S'sector'
p3
S'Industrial Goods'
p4
sS'name'
p5
S'AMETEK, Inc.'
p6
sS'float_shares'
p7
S'   241,494,000'
p8
sS'symbol'
p9
S'AME'
p10
sS'start_date'
p11
S'1984-07-19'
p12
sS'currency'
p13
S'USD'
p14
sS'industry'
p15
S'Diversified Machinery'
p16
sS'shares_outstanding'
p17
S'   245,438,000'
p18
sb.