(istock_attributes
StockAttributes
p1
(dp2
S'sector'
p3
S'Financial'
p4
sS'name'
p5
S'Affiliated Manage'
p6
sS'float_shares'
p7
S'    54,963,000'
p8
sS'symbol'
p9
S'AMG'
p10
sS'start_date'
p11
S'1997-11-21'
p12
sS'currency'
p13
S'USD'
p14
sS'industry'
p15
S'Asset Management'
p16
sS'shares_outstanding'
p17
S'    55,552,000'
p18
sb.