(istock_attributes
StockAttributes
p1
(dp2
S'sector'
p3
S'Financial'
p4
sS'name'
p5
S'Ameriprise Financ'
p6
sS'float_shares'
p7
S'   184,057,000'
p8
sS'symbol'
p9
S'AMP'
p10
sS'start_date'
p11
S'2005-09-15'
p12
sS'currency'
p13
S'USD'
p14
sS'industry'
p15
S'Asset Management'
p16
sS'shares_outstanding'
p17
S'   185,399,000'
p18
sb.