(istock_attributes
StockAttributes
p1
(dp2
S'sector'
p3
S'Financial'
p4
sS'name'
p5
S'American Tower Co'
p6
sS'float_shares'
p7
S'   395,705,000'
p8
sS'symbol'
p9
S'AMT'
p10
sS'start_date'
p11
S'1998-02-27'
p12
sS'currency'
p13
S'USD'
p14
sS'industry'
p15
S'REIT - Diversified'
p16
sS'shares_outstanding'
p17
S'   396,462,000'
p18
sb.