(istock_attributes
StockAttributes
p1
(dp2
S'sector'
p3
S'Services'
p4
sS'name'
p5
S'Amazon.com, Inc.'
p6
sS'float_shares'
p7
S'   378,132,000'
p8
sS'symbol'
p9
S'AMZN'
p10
sS'start_date'
p11
S'1997-05-16'
p12
sS'currency'
p13
S'USD'
p14
sS'industry'
p15
S'Catalog & Mail Order Houses'
p16
sS'shares_outstanding'
p17
S'   463,006,000'
p18
sb.