(istock_attributes
StockAttributes
p1
(dp2
S'sector'
p3
S'Services'
p4
sS'name'
p5
S'AutoNation, Inc.'
p6
sS'float_shares'
p7
S'    72,674,000'
p8
sS'symbol'
p9
S'AN'
p10
sS'start_date'
p11
S'1992-03-03'
p12
sS'currency'
p13
S'USD'
p14
sS'industry'
p15
S'Auto Dealerships'
p16
sS'shares_outstanding'
p17
S'   113,143,000'
p18
sb.