(istock_attributes
StockAttributes
p1
(dp2
S'sector'
p3
S'Basic Materials'
p4
sS'name'
p5
S'Apache Corporatio'
p6
sS'float_shares'
p7
S'   380,396,000'
p8
sS'symbol'
p9
S'APA'
p10
sS'start_date'
p11
S'1979-05-15'
p12
sS'currency'
p13
S'USD'
p14
sS'industry'
p15
S'Independent Oil & Gas'
p16
sS'shares_outstanding'
p17
S'   382,473,000'
p18
sb.