(istock_attributes
StockAttributes
p1
(dp2
S'sector'
p3
S'Technology'
p4
sS'name'
p5
S'Amphenol Corporat'
p6
sS'float_shares'
p7
S'   310,530,000'
p8
sS'symbol'
p9
S'APH'
p10
sS'start_date'
p11
S'1991-11-08'
p12
sS'currency'
p13
S'USD'
p14
sS'industry'
p15
S'Diversified Electronics'
p16
sS'shares_outstanding'
p17
S'   313,284,000'
p18
sb.