(istock_attributes
StockAttributes
p1
(dp2
S'sector'
p3
S'Industrial Goods'
p4
sS'name'
p5
S'Allegheny Technol'
p6
sS'float_shares'
p7
S'   107,403,000'
p8
sS'symbol'
p9
S'ATI'
p10
sS'start_date'
p11
S'1999-11-29'
p12
sS'currency'
p13
S'USD'
p14
sS'industry'
p15
S'Metal Fabrication'
p16
sS'shares_outstanding'
p17
S'   108,702,000'
p18
sb.