(istock_attributes
StockAttributes
p1
(dp2
S'sector'
p3
S'Financial'
p4
sS'name'
p5
S'Aviva plc Unspons'
p6
sS'float_shares'
p7
S'  1,428,148,000'
p8
sS'symbol'
p9
S'AV'
p10
sS'start_date'
p11
S'2009-NaN-20'
p12
sS'currency'
p13
S'USD'
p14
sS'industry'
p15
S'Life Insurance'
p16
sS'shares_outstanding'
p17
S'  1,472,500,000'
p18
sb.