(istock_attributes
StockAttributes
p1
(dp2
S'sector'
p3
S'Technology'
p4
sS'name'
p5
S'Avago Technologie'
p6
sS'float_shares'
p7
S'   230,573,000'
p8
sS'symbol'
p9
S'AVGO'
p10
sS'start_date'
p11
S'2009-08-06'
p12
sS'currency'
p13
S'USD'
p14
sS'industry'
p15
S'Semiconductor - Broad Line'
p16
sS'shares_outstanding'
p17
S'   252,899,000'
p18
sb.