(istock_attributes
StockAttributes
p1
(dp2
S'sector'
p3
S'Consumer Goods'
p4
sS'name'
p5
S'Avon Products, In'
p6
sS'float_shares'
p7
S'   433,847,000'
p8
sS'symbol'
p9
S'AVP'
p10
sS'start_date'
p11
S'1972-06-01'
p12
sS'currency'
p13
S'USD'
p14
sS'industry'
p15
S'Personal Products'
p16
sS'shares_outstanding'
p17
S'   434,655,000'
p18
sb.