(istock_attributes
StockAttributes
p1
(dp2
S'sector'
p3
S'Consumer Goods'
p4
sS'name'
p5
S'Avery Dennison Co'
p6
sS'float_shares'
p7
S'    90,562,000'
p8
sS'symbol'
p9
S'AVY'
p10
sS'start_date'
p11
S'1983-12-29'
p12
sS'currency'
p13
S'USD'
p14
sS'industry'
p15
S'Business Equipment'
p16
sS'shares_outstanding'
p17
S'    91,101,000'
p18
sb.