(istock_attributes
StockAttributes
p1
(dp2
S'sector'
p3
S'Healthcare'
p4
sS'name'
p5
S'Astrazeneca PLC C'
p6
sS'float_shares'
p7
S'  1,233,913,000'
p8
sS'symbol'
p9
S'AZN'
p10
sS'start_date'
p11
S'1993-05-17'
p12
sS'currency'
p13
S'USD'
p14
sS'industry'
p15
S'Drug Manufacturers - Major'
p16
sS'shares_outstanding'
p17
S'  1,263,000,000'
p18
sb.