(istock_attributes
StockAttributes
p1
(dp2
S'sector'
p3
S'Services'
p4
sS'name'
p5
S'AutoZone, Inc. Co'
p6
sS'float_shares'
p7
S'    31,727,000'
p8
sS'symbol'
p9
S'AZO'
p10
sS'start_date'
p11
S'1991-04-02'
p12
sS'currency'
p13
S'USD'
p14
sS'industry'
p15
S'Auto Parts Stores'
p16
sS'shares_outstanding'
p17
S'    32,040,000'
p18
sb.