(istock_attributes
StockAttributes
p1
(dp2
S'sector'
p3
S'Industrial Goods'
p4
sS'name'
p5
S'BABCOCK INTL GRP'
p6
sS'float_shares'
p7
S'   332,487,000'
p8
sS'symbol'
p9
S'BAB.L'
p10
sS'start_date'
p11
S'1989-08-11'
p12
sS'currency'
p13
S'GBP'
p14
sS'industry'
p15
S'General Contractors'
p16
sS'shares_outstanding'
p17
S'   360,912,000'
p18
sb.