(istock_attributes
StockAttributes
p1
(dp2
S'sector'
p3
S'Financial'
p4
sS'name'
p5
S'Bank of America C'
p6
sS'float_shares'
p7
S' 10,502,959,000'
p8
sS'symbol'
p9
S'BAC'
p10
sS'start_date'
p11
S'1986-05-29'
p12
sS'currency'
p13
S'USD'
p14
sS'industry'
p15
S'Money Center Banks'
p16
sS'shares_outstanding'
p17
S' 10,515,893,000'
p18
sb.