(istock_attributes
StockAttributes
p1
(dp2
S'sector'
p3
S'Services'
p4
sS'name'
p5
S'Bed Bath & Beyond'
p6
sS'float_shares'
p7
S'   175,458,000'
p8
sS'symbol'
p9
S'BBBY'
p10
sS'start_date'
p11
S'1992-06-05'
p12
sS'currency'
p13
S'USD'
p14
sS'industry'
p15
S'Home Furnishing Stores'
p16
sS'shares_outstanding'
p17
S'   181,569,000'
p18
sb.