(istock_attributes
StockAttributes
p1
(dp2
S'sector'
p3
S'Services'
p4
sS'name'
p5
S'Best Buy Co., Inc'
p6
sS'float_shares'
p7
S'   288,859,000'
p8
sS'symbol'
p9
S'BBY'
p10
sS'start_date'
p11
S'1985-04-19'
p12
sS'currency'
p13
S'USD'
p14
sS'industry'
p15
S'Electronics Stores'
p16
sS'shares_outstanding'
p17
S'   349,615,000'
p18
sb.