(istock_attributes
StockAttributes
p1
(dp2
S'sector'
p3
S'Consumer Goods'
p4
sS'name'
p5
S'Brown Forman Inc'
p6
sS'float_shares'
p7
S'   158,234,000'
p8
sS'symbol'
p9
S'BF-B'
p10
sS'start_date'
p11
S'1990-01-02'
p12
sS'currency'
p13
S'USD'
p14
sS'industry'
p15
S'Beverages - Wineries & Distillers'
p16
sS'shares_outstanding'
p17
S'   213,496,000'
p18
sb.