(istock_attributes
StockAttributes
p1
(dp2
S'sector'
p3
S'Consumer Goods'
p4
sS'name'
p5
S'Bunge Limited Bun'
p6
sS'float_shares'
p7
S'   143,647,000'
p8
sS'symbol'
p9
S'BG'
p10
sS'start_date'
p11
S'2001-08-02'
p12
sS'currency'
p13
S'USD'
p14
sS'industry'
p15
S'Farm Products'
p16
sS'shares_outstanding'
p17
S'   145,195,000'
p18
sb.