(istock_attributes
StockAttributes
p1
(dp2
S'sector'
p3
S'Basic Materials'
p4
sS'name'
p5
S'Baker Hughes Inco'
p6
sS'float_shares'
p7
S'   431,353,000'
p8
sS'symbol'
p9
S'BHI'
p10
sS'start_date'
p11
S'1987-04-07'
p12
sS'currency'
p13
S'USD'
p14
sS'industry'
p15
S'Oil & Gas Equipment & Services'
p16
sS'shares_outstanding'
p17
S'   432,598,000'
p18
sb.