(istock_attributes
StockAttributes
p1
(dp2
S'sector'
p3
S'Industrial Goods'
p4
sS'name'
p5
S'Blount Internatio'
p6
sS'float_shares'
p7
S'    36,886,000'
p8
sS'symbol'
p9
S'BLT'
p10
sS'start_date'
p11
S'1999-08-20'
p12
sS'currency'
p13
S'USD'
p14
sS'industry'
p15
S'Machine Tools & Accessories'
p16
sS'shares_outstanding'
p17
S'    49,415,000'
p18
sb.