(istock_attributes
StockAttributes
p1
(dp2
S'sector'
p3
S'Basic Materials'
p4
sS'name'
p5
S'BHP BILLITON'
p6
sS'float_shares'
p7
S'  5,228,192,000'
p8
sS'symbol'
p9
S'BLT.L'
p10
sS'start_date'
p11
S'1997-07-22'
p12
sS'currency'
p13
S'GBp'
p14
sS'industry'
p15
S'Industrial Metals & Minerals'
p16
sS'shares_outstanding'
p17
S'  5,321,152,000'
p18
sb.