(istock_attributes
StockAttributes
p1
(dp2
S'sector'
p3
S'Consumer Goods'
p4
sS'name'
p5
S'BMW'
p6
sS'float_shares'
p7
S'   375,121,000'
p8
sS'symbol'
p9
S'BMW.DE'
p10
sS'start_date'
p11
S'2000-01-03'
p12
sS'currency'
p13
S'EUR'
p14
sS'industry'
p15
S'Auto Manufacturers - Major'
p16
sS'shares_outstanding'
p17
S'   656,255,000'
p18
sb.