(istock_attributes
StockAttributes
p1
(dp2
S'sector'
p3
S'Financial'
p4
sS'name'
p5
S'BNP PARIBAS-A-'
p6
sS'float_shares'
p7
S'  1,033,616,000'
p8
sS'symbol'
p9
S'BNP.PA'
p10
sS'start_date'
p11
S'2000-01-03'
p12
sS'currency'
p13
S'EUR'
p14
sS'industry'
p15
S'Money Center Banks'
p16
sS'shares_outstanding'
p17
S'  1,242,819,000'
p18
sb.