(istock_attributes
StockAttributes
p1
(dp2
S'sector'
p3
S'Basic Materials'
p4
sS'name'
p5
S'BP p.l.c. Common'
p6
sS'float_shares'
p7
S'  2,944,849,000'
p8
sS'symbol'
p9
S'BP'
p10
sS'start_date'
p11
S'1977-01-03'
p12
sS'currency'
p13
S'USD'
p14
sS'industry'
p15
S'Major Integrated Oil & Gas'
p16
sS'shares_outstanding'
p17
S'  3,051,910,000'
p18
sb.