(istock_attributes
StockAttributes
p1
(dp2
S'sector'
p3
S'Basic Materials'
p4
sS'name'
p5
S'BP'
p6
sS'float_shares'
p7
S' 17,669,094,000'
p8
sS'symbol'
p9
S'BP.L'
p10
sS'start_date'
p11
S'1988-07-01'
p12
sS'currency'
p13
S'GBP'
p14
sS'industry'
p15
S'Major Integrated Oil & Gas'
p16
sS'shares_outstanding'
p17
S' 18,311,460,000'
p18
sb.