(istock_attributes
StockAttributes
p1
(dp2
S'sector'
p3
S'Services'
p4
sS'name'
p5
S'BURBERRY GROUP'
p6
sS'float_shares'
p7
S'   422,684,000'
p8
sS'symbol'
p9
S'BRBY.L'
p10
sS'start_date'
p11
S'2002-07-12'
p12
sS'currency'
p13
S'GBP'
p14
sS'industry'
p15
S'Jewelry Stores'
p16
sS'shares_outstanding'
p17
S'   439,075,000'
p18
sb.