(istock_attributes
StockAttributes
p1
(dp2
S'sector'
p3
S'Technology'
p4
sS'name'
p5
S'Broadcom Corporat'
p6
sS'float_shares'
p7
S'   547,061,000'
p8
sS'symbol'
p9
S'BRCM'
p10
sS'start_date'
p11
S'1998-04-17'
p12
sS'currency'
p13
S'USD'
p14
sS'industry'
p15
S'Semiconductor - Integrated Circuits'
p16
sS'shares_outstanding'
p17
S'   592,000,000'
p18
sb.