(istock_attributes
StockAttributes
p1
(dp2
S'sector'
p3
S'Healthcare'
p4
sS'name'
p5
S'Boston Scientific'
p6
sS'float_shares'
p7
S'  1,311,016,000'
p8
sS'symbol'
p9
S'BSX'
p10
sS'start_date'
p11
S'1992-05-19'
p12
sS'currency'
p13
S'USD'
p14
sS'industry'
p15
S'Medical Appliances & Equipment'
p16
sS'shares_outstanding'
p17
S'  1,326,000,000'
p18
sb.