(istock_attributes
StockAttributes
p1
(dp2
S'sector'
p3
S'Services'
p4
sS'name'
p5
S'B SKY B GROUP'
p6
sS'float_shares'
p7
S'  1,005,711,000'
p8
sS'symbol'
p9
S'BSY.L'
p10
sS'start_date'
p11
S'1994-12-14'
p12
sS'currency'
p13
S'GBp'
p14
sS'industry'
p15
S'CATV Systems'
p16
sS'shares_outstanding'
p17
S'  1,702,000,000'
p18
sb.