(istock_attributes
StockAttributes
p1
(dp2
S'sector'
p3
S'Technology'
p4
sS'name'
p5
S'BT Group plc Comm'
p6
sS'float_shares'
p7
S'   748,100,000'
p8
sS'symbol'
p9
S'BT'
p10
sS'start_date'
p11
S'1984-12-03'
p12
sS'currency'
p13
S'USD'
p14
sS'industry'
p15
S'Diversified Communication Services'
p16
sS'shares_outstanding'
p17
S'   802,700,000'
p18
sb.