(istock_attributes
StockAttributes
p1
(dp2
S'sector'
p3
S'Consumer Goods'
p4
sS'name'
p5
S'BorgWarner Inc. C'
p6
sS'float_shares'
p7
S'   223,721,000'
p8
sS'symbol'
p9
S'BWA'
p10
sS'start_date'
p11
S'1993-08-13'
p12
sS'currency'
p13
S'USD'
p14
sS'industry'
p15
S'Auto Parts'
p16
sS'shares_outstanding'
p17
S'   227,373,000'
p18
sb.