(istock_attributes
StockAttributes
p1
(dp2
S'sector'
p3
S'Financial'
p4
sS'name'
p5
S'Boston Properties'
p6
sS'float_shares'
p7
S'   151,721,000'
p8
sS'symbol'
p9
S'BXP'
p10
sS'start_date'
p11
S'1997-06-18'
p12
sS'currency'
p13
S'USD'
p14
sS'industry'
p15
S'REIT - Office'
p16
sS'shares_outstanding'
p17
S'   153,099,000'
p18
sb.