(istock_attributes
StockAttributes
p1
(dp2
S'sector'
p3
S'Consumer Goods'
p4
sS'name'
p5
S'ConAgra Foods, In'
p6
sS'float_shares'
p7
S'   422,945,000'
p8
sS'symbol'
p9
S'CAG'
p10
sS'start_date'
p11
S'1990-01-02'
p12
sS'currency'
p13
S'USD'
p14
sS'industry'
p15
S'Processed & Packaged Goods'
p16
sS'shares_outstanding'
p17
S'   424,827,000'
p18
sb.