(istock_attributes
StockAttributes
p1
(dp2
S'sector'
p3
S'Technology'
p4
sS'name'
p5
S'CAP GEMINI'
p6
sS'float_shares'
p7
S'   143,360,000'
p8
sS'symbol'
p9
S'CAP.PA'
p10
sS'start_date'
p11
S'2000-01-03'
p12
sS'currency'
p13
S'EUR'
p14
sS'industry'
p15
S'Information Technology Services'
p16
sS'shares_outstanding'
p17
S'   158,477,000'
p18
sb.