(istock_attributes
StockAttributes
p1
(dp2
S'sector'
p3
S'Industrial Goods'
p4
sS'name'
p5
S'Caterpillar, Inc.'
p6
sS'float_shares'
p7
S'   609,445,000'
p8
sS'symbol'
p9
S'CAT'
p10
sS'start_date'
p11
S'1962-01-02'
p12
sS'currency'
p13
S'USD'
p14
sS'industry'
p15
S'Farm & Construction Machinery'
p16
sS'shares_outstanding'
p17
S'   611,500,000'
p18
sb.