(istock_attributes
StockAttributes
p1
(dp2
S'sector'
p3
S'Financial'
p4
sS'name'
p5
S'CBRE Group Inc Co'
p6
sS'float_shares'
p7
S'   292,645,000'
p8
sS'symbol'
p9
S'CBG'
p10
sS'start_date'
p11
S'2004-06-10'
p12
sS'currency'
p13
S'USD'
p14
sS'industry'
p15
S'Property Management'
p16
sS'shares_outstanding'
p17
S'   330,419,000'
p18
sb.