(istock_attributes
StockAttributes
p1
(dp2
S'sector'
p3
S'Services'
p4
sS'name'
p5
S'CBS Corporation C'
p6
sS'float_shares'
p7
S'   483,730,000'
p8
sS'symbol'
p9
S'CBS'
p10
sS'start_date'
p11
S'2005-12-05'
p12
sS'currency'
p13
S'USD'
p14
sS'industry'
p15
S'Entertainment - Diversified'
p16
sS'shares_outstanding'
p17
S'   526,818,000'
p18
sb.