(istock_attributes
StockAttributes
p1
(dp2
S'sector'
p3
S'Health'
p4
sS'name'
p5
S'COCA-COLA HBC N'
p6
sS'float_shares'
p7
S'           0'
p8
sS'symbol'
p9
S'CCH.L'
p10
sS'start_date'
p11
S'2013-04-29'
p12
sS'currency'
p13
S'GBp'
p14
sS'industry'
p15
S'Pharmaceuticals'
p16
sS'shares_outstanding'
p17
S'           0'
p18
sb.