(istock_attributes
StockAttributes
p1
(dp2
S'sector'
p3
S'Services'
p4
sS'name'
p5
S'Carnival Corporat'
p6
sS'float_shares'
p7
S'   592,081,000'
p8
sS'symbol'
p9
S'CCL'
p10
sS'start_date'
p11
S'1989-01-05'
p12
sS'currency'
p13
S'USD'
p14
sS'industry'
p15
S'Resorts & Casinos'
p16
sS'shares_outstanding'
p17
S'   777,000,000'
p18
sb.