(istock_attributes
StockAttributes
p1
(dp2
S'sector'
p3
S'Technology'
p4
sS'name'
p5
S'Cerner Corporatio'
p6
sS'float_shares'
p7
S'   301,929,000'
p8
sS'symbol'
p9
S'CERN'
p10
sS'start_date'
p11
S'1990-03-26'
p12
sS'currency'
p13
S'USD'
p14
sS'industry'
p15
S'Healthcare Information Services'
p16
sS'shares_outstanding'
p17
S'   341,472,000'
p18
sb.