(istock_attributes
StockAttributes
p1
(dp2
S'sector'
p3
S'Basic Materials'
p4
sS'name'
p5
S'CF Industries Hol'
p6
sS'float_shares'
p7
S'    49,430,000'
p8
sS'symbol'
p9
S'CF'
p10
sS'start_date'
p11
S'2005-08-11'
p12
sS'currency'
p13
S'USD'
p14
sS'industry'
p15
S'Agricultural Chemicals'
p16
sS'shares_outstanding'
p17
S'    49,670,000'
p18
sb.