(istock_attributes
StockAttributes
p1
(dp2
S'sector'
p3
S'Healthcare'
p4
sS'name'
p5
S'CareFusion Corpor'
p6
sS'float_shares'
p7
S'   201,849,000'
p8
sS'symbol'
p9
S'CFN'
p10
sS'start_date'
p11
S'2009-08-21'
p12
sS'currency'
p13
S'USD'
p14
sS'industry'
p15
S'Medical Instruments & Supplies'
p16
sS'shares_outstanding'
p17
S'   202,863,000'
p18
sb.