(istock_attributes
StockAttributes
p1
(dp2
S'sector'
p3
S'Basic Materials'
p4
sS'name'
p5
S'Chesapeake Energy'
p6
sS'float_shares'
p7
S'   574,443,000'
p8
sS'symbol'
p9
S'CHK'
p10
sS'start_date'
p11
S'1993-02-16'
p12
sS'currency'
p13
S'USD'
p14
sS'industry'
p15
S'Independent Oil & Gas'
p16
sS'shares_outstanding'
p17
S'   650,898,000'
p18
sb.