(istock_attributes
StockAttributes
p1
(dp2
S'sector'
p3
S'Consumer Goods'
p4
sS'name'
p5
S'Colgate-Palmolive'
p6
sS'float_shares'
p7
S'   906,349,000'
p8
sS'symbol'
p9
S'CL'
p10
sS'start_date'
p11
S'1977-01-03'
p12
sS'currency'
p13
S'USD'
p14
sS'industry'
p15
S'Personal Products'
p16
sS'shares_outstanding'
p17
S'   911,398,000'
p18
sb.