(istock_attributes
StockAttributes
p1
(dp2
S'sector'
p3
S'Consumer Goods'
p4
sS'name'
p5
S'Clorox Company (T'
p6
sS'float_shares'
p7
S'   128,935,000'
p8
sS'symbol'
p9
S'CLX'
p10
sS'start_date'
p11
S'1983-03-21'
p12
sS'currency'
p13
S'USD'
p14
sS'industry'
p15
S'Housewares & Accessories'
p16
sS'shares_outstanding'
p17
S'   129,311,000'
p18
sb.