(istock_attributes
StockAttributes
p1
(dp2
S'sector'
p3
S'Services'
p4
sS'name'
p5
S'Chipotle Mexican'
p6
sS'float_shares'
p7
S'    30,419,000'
p8
sS'symbol'
p9
S'CMG'
p10
sS'start_date'
p11
S'2006-01-26'
p12
sS'currency'
p13
S'USD'
p14
sS'industry'
p15
S'Restaurants'
p16
sS'shares_outstanding'
p17
S'    31,012,000'
p18
sb.