(istock_attributes
StockAttributes
p1
(dp2
S'sector'
p3
S'Industrial Goods'
p4
sS'name'
p5
S'Cummins Inc. Comm'
p6
sS'float_shares'
p7
S'   181,027,000'
p8
sS'symbol'
p9
S'CMI'
p10
sS'start_date'
p11
S'1984-12-18'
p12
sS'currency'
p13
S'USD'
p14
sS'industry'
p15
S'Diversified Machinery'
p16
sS'shares_outstanding'
p17
S'   181,600,000'
p18
sb.