(istock_attributes
StockAttributes
p1
(dp2
S'sector'
p3
S'Utilities'
p4
sS'name'
p5
S'CMS Energy Corpor'
p6
sS'float_shares'
p7
S'   270,959,000'
p8
sS'symbol'
p9
S'CMS'
p10
sS'start_date'
p11
S'1984-12-31'
p12
sS'currency'
p13
S'USD'
p14
sS'industry'
p15
S'Electric Utilities'
p16
sS'shares_outstanding'
p17
S'   275,057,000'
p18
sb.