(istock_attributes
StockAttributes
p1
(dp2
S'sector'
p3
S'Consumer Goods'
p4
sS'name'
p5
S'Campbell Soup Com'
p6
sS'float_shares'
p7
S'   180,327,000'
p8
sS'symbol'
p9
S'CPB'
p10
sS'start_date'
p11
S'1985-07-01'
p12
sS'currency'
p13
S'USD'
p14
sS'industry'
p15
S'Processed & Packaged Goods'
p16
sS'shares_outstanding'
p17
S'   314,220,000'
p18
sb.