(istock_attributes
StockAttributes
p1
(dp2
S'sector'
p3
S'Basic Materials'
p4
sS'name'
p5
S'Crescent Point En'
p6
sS'float_shares'
p7
S'   440,203,000'
p8
sS'symbol'
p9
S'CPG'
p10
sS'start_date'
p11
S'2006-07-20'
p12
sS'currency'
p13
S'USD'
p14
sS'industry'
p15
S'Independent Oil & Gas'
p16
sS'shares_outstanding'
p17
S'   444,452,000'
p18
sb.