(istock_attributes
StockAttributes
p1
(dp2
S'sector'
p3
S'Services'
p4
sS'name'
p5
S'COMPASS GROUP'
p6
sS'float_shares'
p7
S'  1,646,720,000'
p8
sS'symbol'
p9
S'CPG.L'
p10
sS'start_date'
p11
S'2000-01-04'
p12
sS'currency'
p13
S'GBp'
p14
sS'industry'
p15
S'Restaurants'
p16
sS'shares_outstanding'
p17
S'  1,689,411,000'
p18
sb.