(istock_attributes
StockAttributes
p1
(dp2
S'sector'
p3
S'Industrial Goods'
p4
sS'name'
p5
S'CRH PLC American'
p6
sS'float_shares'
p7
S'   734,745,000'
p8
sS'symbol'
p9
S'CRH'
p10
sS'start_date'
p11
S'1993-02-19'
p12
sS'currency'
p13
S'USD'
p14
sS'industry'
p15
S'Cement'
p16
sS'shares_outstanding'
p17
S'   735,400,000'
p18
sb.