(istock_attributes
StockAttributes
p1
(dp2
S'sector'
p3
S'Technology'
p4
sS'name'
p5
S'Cisco Systems, In'
p6
sS'float_shares'
p7
S'  5,091,809,000'
p8
sS'symbol'
p9
S'CSCO'
p10
sS'start_date'
p11
S'1990-03-26'
p12
sS'currency'
p13
S'USD'
p14
sS'industry'
p15
S'Networking & Communication Devices'
p16
sS'shares_outstanding'
p17
S'  5,099,203,000'
p18
sb.