(istock_attributes
StockAttributes
p1
(dp2
S'sector'
p3
S'Services'
p4
sS'name'
p5
S'CSX Corporation C'
p6
sS'float_shares'
p7
S'   990,529,000'
p8
sS'symbol'
p9
S'CSX'
p10
sS'start_date'
p11
S'1980-11-03'
p12
sS'currency'
p13
S'USD'
p14
sS'industry'
p15
S'Railroads'
p16
sS'shares_outstanding'
p17
S'   995,397,000'
p18
sb.