(istock_attributes
StockAttributes
p1
(dp2
S'sector'
p3
S'Technology'
p4
sS'name'
p5
S'CenturyLink, Inc.'
p6
sS'float_shares'
p7
S'   567,428,000'
p8
sS'symbol'
p9
S'CTL'
p10
sS'start_date'
p11
S'1987-11-05'
p12
sS'currency'
p13
S'USD'
p14
sS'industry'
p15
S'Telecom Services - Domestic'
p16
sS'shares_outstanding'
p17
S'   570,164,000'
p18
sb.