(istock_attributes
StockAttributes
p1
(dp2
S'sector'
p3
S'Technology'
p4
sS'name'
p5
S'Citrix Systems, I'
p6
sS'float_shares'
p7
S'   164,708,000'
p8
sS'symbol'
p9
S'CTXS'
p10
sS'start_date'
p11
S'1995-12-08'
p12
sS'currency'
p13
S'USD'
p14
sS'industry'
p15
S'Business Software & Services'
p16
sS'shares_outstanding'
p17
S'   165,712,000'
p18
sb.