(istock_attributes
StockAttributes
p1
(dp2
S'sector'
p3
S'Healthcare'
p4
sS'name'
p5
S'CVS Health Corpor'
p6
sS'float_shares'
p7
S'  1,156,879,000'
p8
sS'symbol'
p9
S'CVS'
p10
sS'start_date'
p11
S'1984-12-17'
p12
sS'currency'
p13
S'USD'
p14
sS'industry'
p15
S'Health Care Plans'
p16
sS'shares_outstanding'
p17
S'  1,160,000,000'
p18
sb.