(istock_attributes
StockAttributes
p1
(dp2
S'sector'
p3
S'Financial'
p4
sS'name'
p5
S'DEUTSCHE BOERSE N'
p6
sS'float_shares'
p7
S'           0'
p8
sS'symbol'
p9
S'DB1.DE'
p10
sS'start_date'
p11
S'2001-02-05'
p12
sS'currency'
p13
S'EUR'
p14
sS'industry'
p15
S'Asset Management'
p16
sS'shares_outstanding'
p17
S'   184,186,000'
p18
sb.