(istock_attributes
StockAttributes
p1
(dp2
S'sector'
p3
S'Technology'
p4
sS'name'
p5
S'DIXONS CARPHONE'
p6
sS'float_shares'
p7
S'           0'
p8
sS'symbol'
p9
S'DC.L'
p10
sS'start_date'
p11
S'2009-10-01'
p12
sS'currency'
p13
S'GBp'
p14
sS'industry'
p15
S'Diversified Communication Services'
p16
sS'shares_outstanding'
p17
S'           0'
p18
sb.