(istock_attributes
StockAttributes
p1
(dp2
S'sector'
p3
S'Financial'
p4
sS'name'
p5
S'Discover Financia'
p6
sS'float_shares'
p7
S'   447,335,000'
p8
sS'symbol'
p9
S'DFS'
p10
sS'start_date'
p11
S'2007-06-14'
p12
sS'currency'
p13
S'USD'
p14
sS'industry'
p15
S'Credit Services'
p16
sS'shares_outstanding'
p17
S'   453,479,000'
p18
sb.