(istock_attributes
StockAttributes
p1
(dp2
S'sector'
p3
S'Industrial Goods'
p4
sS'name'
p5
S'VINCI'
p6
sS'float_shares'
p7
S'   495,830,000'
p8
sS'symbol'
p9
S'DG.PA'
p10
sS'start_date'
p11
S'2000-01-03'
p12
sS'currency'
p13
S'EUR'
p14
sS'industry'
p15
S'General Contractors'
p16
sS'shares_outstanding'
p17
S'   553,876,000'
p18
sb.