(istock_attributes
StockAttributes
p1
(dp2
S'sector'
p3
S'Consumer Goods'
p4
sS'name'
p5
S'DIAGEO'
p6
sS'float_shares'
p7
S'  2,427,082,000'
p8
sS'symbol'
p9
S'DGE.L'
p10
sS'start_date'
p11
S'1988-05-03'
p12
sS'currency'
p13
S'GBP'
p14
sS'industry'
p15
S'Beverages - Wineries & Distillers'
p16
sS'shares_outstanding'
p17
S'  2,501,218,000'
p18
sb.