(istock_attributes
StockAttributes
p1
(dp2
S'sector'
p3
S'Healthcare'
p4
sS'name'
p5
S'Quest Diagnostics'
p6
sS'float_shares'
p7
S'   143,762,000'
p8
sS'symbol'
p9
S'DGX'
p10
sS'start_date'
p11
S'1996-12-26'
p12
sS'currency'
p13
S'USD'
p14
sS'industry'
p15
S'Medical Laboratories & Research'
p16
sS'shares_outstanding'
p17
S'   144,534,000'
p18
sb.