(istock_attributes
StockAttributes
p1
(dp2
S'sector'
p3
S'Industrial Goods'
p4
sS'name'
p5
S'D.R. Horton, Inc.'
p6
sS'float_shares'
p7
S'   325,426,000'
p8
sS'symbol'
p9
S'DHI'
p10
sS'start_date'
p11
S'1992-06-05'
p12
sS'currency'
p13
S'USD'
p14
sS'industry'
p15
S'Residential Construction'
p16
sS'shares_outstanding'
p17
S'   364,472,000'
p18
sb.