(istock_attributes
StockAttributes
p1
(dp2
S'sector'
p3
S'Services'
p4
sS'name'
p5
S'Walt Disney Compa'
p6
sS'float_shares'
p7
S'  1,582,345,000'
p8
sS'symbol'
p9
S'DIS'
p10
sS'start_date'
p11
S'1962-01-02'
p12
sS'currency'
p13
S'USD'
p14
sS'industry'
p15
S'Entertainment - Diversified'
p16
sS'shares_outstanding'
p17
S'  1,716,544,000'
p18
sb.