(istock_attributes
StockAttributes
p1
(dp2
S'sector'
p3
S'N/A'
p4
sS'name'
p5
S'Discovery Communi'
p6
sS'float_shares'
p7
S'   515,467,000'
p8
sS'symbol'
p9
S'DISCK'
p10
sS'start_date'
p11
S'2008-09-18'
p12
sS'currency'
p13
S'USD'
p14
sS'industry'
p15
S'N/A'
p16
sS'shares_outstanding'
p17
S'   686,000,000'
p18
sb.