(istock_attributes
StockAttributes
p1
(dp2
S'sector'
p3
S'Financial'
p4
sS'name'
p5
S'DIRECT LINE INS'
p6
sS'float_shares'
p7
S'  1,480,522,000'
p8
sS'symbol'
p9
S'DLG.L'
p10
sS'start_date'
p11
S'2012-10-11'
p12
sS'currency'
p13
S'GBP'
p14
sS'industry'
p15
S'Property & Casualty Insurance'
p16
sS'shares_outstanding'
p17
S'  1,495,099,000'
p18
sb.