(istock_attributes
StockAttributes
p1
(dp2
S'sector'
p3
S'Services'
p4
sS'name'
p5
S'Dollar Tree, Inc.'
p6
sS'float_shares'
p7
S'   197,470,000'
p8
sS'symbol'
p9
S'DLTR'
p10
sS'start_date'
p11
S'1995-03-09'
p12
sS'currency'
p13
S'USD'
p14
sS'industry'
p15
S'Discount, Variety Stores'
p16
sS'shares_outstanding'
p17
S'   205,625,000'
p18
sb.