(istock_attributes
StockAttributes
p1
(dp2
S'sector'
p3
S'Technology'
p4
sS'name'
p5
S'Dun & Bradstreet'
p6
sS'float_shares'
p7
S'    36,226,000'
p8
sS'symbol'
p9
S'DNB'
p10
sS'start_date'
p11
S'1983-06-10'
p12
sS'currency'
p13
S'USD'
p14
sS'industry'
p15
S'Information & Delivery Services'
p16
sS'shares_outstanding'
p17
S'    36,369,000'
p18
sb.