(istock_attributes
StockAttributes
p1
(dp2
S'sector'
p3
S'Basic Materials'
p4
sS'name'
p5
S'Denbury Resources'
p6
sS'float_shares'
p7
S'   340,968,000'
p8
sS'symbol'
p9
S'DNR'
p10
sS'start_date'
p11
S'1995-09-06'
p12
sS'currency'
p13
S'USD'
p14
sS'industry'
p15
S'Independent Oil & Gas'
p16
sS'shares_outstanding'
p17
S'   347,803,000'
p18
sb.