(istock_attributes
StockAttributes
p1
(dp2
S'sector'
p3
S'Basic Materials'
p4
sS'name'
p5
S'Diamond Offshore'
p6
sS'float_shares'
p7
S'    67,021,000'
p8
sS'symbol'
p9
S'DO'
p10
sS'start_date'
p11
S'1995-10-11'
p12
sS'currency'
p13
S'USD'
p14
sS'industry'
p15
S'Oil & Gas Drilling & Exploration'
p16
sS'shares_outstanding'
p17
S'   137,147,000'
p18
sb.