(istock_attributes
StockAttributes
p1
(dp2
S'sector'
p3
S'Consumer Goods'
p4
sS'name'
p5
S'Dr Pepper Snapple'
p6
sS'float_shares'
p7
S'   193,287,000'
p8
sS'symbol'
p9
S'DPS'
p10
sS'start_date'
p11
S'2008-05-07'
p12
sS'currency'
p13
S'USD'
p14
sS'industry'
p15
S'Beverages - Soft Drinks'
p16
sS'shares_outstanding'
p17
S'   194,409,000'
p18
sb.