(istock_attributes
StockAttributes
p1
(dp2
S'sector'
p3
S'Utilities'
p4
sS'name'
p5
S'DTE Energy Compan'
p6
sS'float_shares'
p7
S'   176,208,000'
p8
sS'symbol'
p9
S'DTE'
p10
sS'start_date'
p11
S'1970-01-02'
p12
sS'currency'
p13
S'USD'
p14
sS'industry'
p15
S'Electric Utilities'
p16
sS'shares_outstanding'
p17
S'   176,991,000'
p18
sb.