(istock_attributes
StockAttributes
p1
(dp2
S'sector'
p3
S'Technology'
p4
sS'name'
p5
S'DEUTSCHE TELEKOM'
p6
sS'float_shares'
p7
S'  3,809,666,000'
p8
sS'symbol'
p9
S'DTE.DE'
p10
sS'start_date'
p11
S'2000-01-03'
p12
sS'currency'
p13
S'EUR'
p14
sS'industry'
p15
S'Wireless Communications'
p16
sS'shares_outstanding'
p17
S'  4,464,000,000'
p18
sb.