(istock_attributes
StockAttributes
p1
(dp2
S'sector'
p3
S'Services'
p4
sS'name'
p5
S'DIRECTV'
p6
sS'float_shares'
p7
S'   500,330,000'
p8
sS'symbol'
p9
S'DTV'
p10
sS'start_date'
p11
S'2003-12-23'
p12
sS'currency'
p13
S'USD'
p14
sS'industry'
p15
S'CATV Systems'
p16
sS'shares_outstanding'
p17
S'   502,228,000'
p18
sb.