(istock_attributes
StockAttributes
p1
(dp2
S'sector'
p3
S'Utilities'
p4
sS'name'
p5
S'Duke Energy Corpo'
p6
sS'float_shares'
p7
S'   705,312,000'
p8
sS'symbol'
p9
S'DUK'
p10
sS'start_date'
p11
S'1983-04-06'
p12
sS'currency'
p13
S'USD'
p14
sS'industry'
p15
S'Diversified Utilities'
p16
sS'shares_outstanding'
p17
S'   707,271,000'
p18
sb.