(istock_attributes
StockAttributes
p1
(dp2
S'sector'
p3
S'Healthcare'
p4
sS'name'
p5
S'DaVita HealthCare'
p6
sS'float_shares'
p7
S'   208,783,000'
p8
sS'symbol'
p9
S'DVA'
p10
sS'start_date'
p11
S'1995-10-31'
p12
sS'currency'
p13
S'USD'
p14
sS'industry'
p15
S'Specialized Health Services'
p16
sS'shares_outstanding'
p17
S'   214,800,000'
p18
sb.