(istock_attributes
StockAttributes
p1
(dp2
S'sector'
p3
S'Services'
p4
sS'name'
p5
S'eBay Inc.'
p6
sS'float_shares'
p7
S'  1,118,316,000'
p8
sS'symbol'
p9
S'EBAY'
p10
sS'start_date'
p11
S'1998-09-24'
p12
sS'currency'
p13
S'USD'
p14
sS'industry'
p15
S'Specialty Retail, Other'
p16
sS'shares_outstanding'
p17
S'  1,242,367,000'
p18
sb.