(istock_attributes
StockAttributes
p1
(dp2
S'sector'
p3
S'Consumer Goods'
p4
sS'name'
p5
S'Ecolab Inc. Commo'
p6
sS'float_shares'
p7
S'   270,627,000'
p8
sS'symbol'
p9
S'ECL'
p10
sS'start_date'
p11
S'1988-01-05'
p12
sS'currency'
p13
S'USD'
p14
sS'industry'
p15
S'Cleaning Products'
p16
sS'shares_outstanding'
p17
S'   300,116,000'
p18
sb.