(istock_attributes
StockAttributes
p1
(dp2
S'sector'
p3
S'Healthcare'
p4
sS'name'
p5
S'ESSILOR INTL'
p6
sS'float_shares'
p7
S'   174,535,000'
p8
sS'symbol'
p9
S'EI.PA'
p10
sS'start_date'
p11
S'2000-01-03'
p12
sS'currency'
p13
S'EUR'
p14
sS'industry'
p15
S'Medical Instruments & Supplies'
p16
sS'shares_outstanding'
p17
S'   210,433,000'
p18
sb.