(istock_attributes
StockAttributes
p1
(dp2
S'sector'
p3
S'Consumer Goods'
p4
sS'name'
p5
S'Estee Lauder Comp'
p6
sS'float_shares'
p7
S'   228,613,000'
p8
sS'symbol'
p9
S'EL'
p10
sS'start_date'
p11
S'1995-11-17'
p12
sS'currency'
p13
S'USD'
p14
sS'industry'
p15
S'Personal Products'
p16
sS'shares_outstanding'
p17
S'   381,308,000'
p18
sb.