(istock_attributes
StockAttributes
p1
(dp2
S'sector'
p3
S'Technology'
p4
sS'name'
p5
S'EMC Corporation C'
p6
sS'float_shares'
p7
S'  2,026,351,000'
p8
sS'symbol'
p9
S'EMC'
p10
sS'start_date'
p11
S'1988-12-16'
p12
sS'currency'
p13
S'USD'
p14
sS'industry'
p15
S'Data Storage Devices'
p16
sS'shares_outstanding'
p17
S'  2,035,000,000'
p18
sb.