(istock_attributes
StockAttributes
p1
(dp2
S'sector'
p3
S'Basic Materials'
p4
sS'name'
p5
S'Eastman Chemical'
p6
sS'float_shares'
p7
S'   147,349,000'
p8
sS'symbol'
p9
S'EMN'
p10
sS'start_date'
p11
S'1993-12-14'
p12
sS'currency'
p13
S'USD'
p14
sS'industry'
p15
S'Chemicals - Major Diversified'
p16
sS'shares_outstanding'
p17
S'   148,500,000'
p18
sb.