(istock_attributes
StockAttributes
p1
(dp2
S'sector'
p3
S'Utilities'
p4
sS'name'
p5
S'ENEL'
p6
sS'float_shares'
p7
S'  6,214,407,000'
p8
sS'symbol'
p9
S'ENEL.MI'
p10
sS'start_date'
p11
S'2001-07-09'
p12
sS'currency'
p13
S'EUR'
p14
sS'industry'
p15
S'Diversified Utilities'
p16
sS'shares_outstanding'
p17
S'  9,319,047,000'
p18
sb.