(istock_attributes
StockAttributes
p1
(dp2
S'sector'
p3
S'Healthcare'
p4
sS'name'
p5
S'Express Scripts H'
p6
sS'float_shares'
p7
S'   731,943,000'
p8
sS'symbol'
p9
S'ESRX'
p10
sS'start_date'
p11
S'1992-06-09'
p12
sS'currency'
p13
S'USD'
p14
sS'industry'
p15
S'Health Care Plans'
p16
sS'shares_outstanding'
p17
S'   733,909,000'
p18
sb.