(istock_attributes
StockAttributes
p1
(dp2
S'sector'
p3
S'Financial'
p4
sS'name'
p5
S'Essex Property Tr'
p6
sS'float_shares'
p7
S'    62,652,000'
p8
sS'symbol'
p9
S'ESS'
p10
sS'start_date'
p11
S'1994-06-07'
p12
sS'currency'
p13
S'USD'
p14
sS'industry'
p15
S'REIT - Residential'
p16
sS'shares_outstanding'
p17
S'    63,229,000'
p18
sb.