(istock_attributes
StockAttributes
p1
(dp2
S'sector'
p3
S'Industrial Goods'
p4
sS'name'
p5
S'Eaton Corporation'
p6
sS'float_shares'
p7
S'   472,910,000'
p8
sS'symbol'
p9
S'ETN'
p10
sS'start_date'
p11
S'1972-06-01'
p12
sS'currency'
p13
S'USD'
p14
sS'industry'
p15
S'Diversified Machinery'
p16
sS'shares_outstanding'
p17
S'   474,600,000'
p18
sb.