(istock_attributes
StockAttributes
p1
(dp2
S'sector'
p3
S'Healthcare'
p4
sS'name'
p5
S'Edwards Lifescien'
p6
sS'float_shares'
p7
S'   105,257,000'
p8
sS'symbol'
p9
S'EW'
p10
sS'start_date'
p11
S'2000-03-27'
p12
sS'currency'
p13
S'USD'
p14
sS'industry'
p15
S'Medical Appliances & Equipment'
p16
sS'shares_outstanding'
p17
S'   106,974,000'
p18
sb.