(istock_attributes
StockAttributes
p1
(dp2
S'sector'
p3
S'Utilities'
p4
sS'name'
p5
S'Exelon Corporatio'
p6
sS'float_shares'
p7
S'   857,204,000'
p8
sS'symbol'
p9
S'EXC'
p10
sS'start_date'
p11
S'1980-01-02'
p12
sS'currency'
p13
S'USD'
p14
sS'industry'
p15
S'Diversified Utilities'
p16
sS'shares_outstanding'
p17
S'   859,464,000'
p18
sb.