(istock_attributes
StockAttributes
p1
(dp2
S'sector'
p3
S'Services'
p4
sS'name'
p5
S'Expeditors Intern'
p6
sS'float_shares'
p7
S'   191,570,000'
p8
sS'symbol'
p9
S'EXPD'
p10
sS'start_date'
p11
S'1990-03-26'
p12
sS'currency'
p13
S'USD'
p14
sS'industry'
p15
S'Air Delivery & Freight Services'
p16
sS'shares_outstanding'
p17
S'   195,108,000'
p18
sb.