(istock_attributes
StockAttributes
p1
(dp2
S'sector'
p3
S'Services'
p4
sS'name'
p5
S'Expedia, Inc.'
p6
sS'float_shares'
p7
S'    97,627,000'
p8
sS'symbol'
p9
S'EXPE'
p10
sS'start_date'
p11
S'2005-07-21'
p12
sS'currency'
p13
S'USD'
p14
sS'industry'
p15
S'Lodging'
p16
sS'shares_outstanding'
p17
S'   126,547,000'
p18
sb.