(istock_attributes
StockAttributes
p1
(dp2
S'sector'
p3
S'Services'
p4
sS'name'
p5
S'EXPERIAN'
p6
sS'float_shares'
p7
S'    25,655,000'
p8
sS'symbol'
p9
S'EXPN.L'
p10
sS'start_date'
p11
S'2006-10-09'
p12
sS'currency'
p13
S'GBp'
p14
sS'industry'
p15
S'Business Services'
p16
sS'shares_outstanding'
p17
S'   976,599,000'
p18
sb.