(istock_attributes
StockAttributes
p1
(dp2
S'sector'
p3
S' '
sS'name'
p4
S'ProShares Ultra M'
p5
sS'float_shares'
p6
S'           0'
p7
sS'symbol'
p8
S'EZJ'
p9
sS'start_date'
p10
S'2009-06-05'
p11
sS'currency'
p12
S'USD'
p13
sS'industry'
p14
S' '
sS'shares_outstanding'
p15
S'           0'
p16
sb.