(istock_attributes
StockAttributes
p1
(dp2
S'sector'
p3
S'Basic Materials'
p4
sS'name'
p5
S'Freeport-McMoRan,'
p6
sS'float_shares'
p7
S'  1,021,887,000'
p8
sS'symbol'
p9
S'FCX'
p10
sS'start_date'
p11
S'1995-07-10'
p12
sS'currency'
p13
S'USD'
p14
sS'industry'
p15
S'Copper'
p16
sS'shares_outstanding'
p17
S'  1,039,000,000'
p18
sb.