(istock_attributes
StockAttributes
p1
(dp2
S'sector'
p3
S'Services'
p4
sS'name'
p5
S'Family Dollar Sto'
p6
sS'float_shares'
p7
S'    88,279,000'
p8
sS'symbol'
p9
S'FDO'
p10
sS'start_date'
p11
S'1985-02-25'
p12
sS'currency'
p13
S'USD'
p14
sS'industry'
p15
S'Discount, Variety Stores'
p16
sS'shares_outstanding'
p17
S'   113,987,000'
p18
sb.