(istock_attributes
StockAttributes
p1
(dp2
S'sector'
p3
S'Services'
p4
sS'name'
p5
S'FedEx Corporation'
p6
sS'float_shares'
p7
S'   262,685,000'
p8
sS'symbol'
p9
S'FDX'
p10
sS'start_date'
p11
S'1978-04-12'
p12
sS'currency'
p13
S'USD'
p14
sS'industry'
p15
S'Air Delivery & Freight Services'
p16
sS'shares_outstanding'
p17
S'   283,246,000'
p18
sb.