(istock_attributes
StockAttributes
p1
(dp2
S'sector'
p3
S'Financial'
p4
sS'name'
p5
S'Fifth Third Banco'
p6
sS'float_shares'
p7
S'   829,673,000'
p8
sS'symbol'
p9
S'FITB'
p10
sS'start_date'
p11
S'1990-03-26'
p12
sS'currency'
p13
S'USD'
p14
sS'industry'
p15
S'Regional - Midwest Banks'
p16
sS'shares_outstanding'
p17
S'   834,261,000'
p18
sb.