(istock_attributes
StockAttributes
p1
(dp2
S'sector'
p3
S'N/A'
p4
sS'name'
p5
S'FRIENDS LIFE GR N'
p6
sS'float_shares'
p7
S'  1,403,078,000'
p8
sS'symbol'
p9
S'FLG.L'
p10
sS'start_date'
p11
S'2008-12-05'
p12
sS'currency'
p13
S'GBp'
p14
sS'industry'
p15
S'N/A'
p16
sS'shares_outstanding'
p17
S'  1,414,136,000'
p18
sb.