(istock_attributes
StockAttributes
p1
(dp2
S'sector'
p3
S'Technology'
p4
sS'name'
p5
S'FLIR Systems, Inc'
p6
sS'float_shares'
p7
S'   139,479,000'
p8
sS'symbol'
p9
S'FLIR'
p10
sS'start_date'
p11
S'1993-06-22'
p12
sS'currency'
p13
S'USD'
p14
sS'industry'
p15
S'Scientific & Technical Instruments'
p16
sS'shares_outstanding'
p17
S'   141,432,000'
p18
sb.