(istock_attributes
StockAttributes
p1
(dp2
S'sector'
p3
S'Industrial Goods'
p4
sS'name'
p5
S'Fluor Corporation'
p6
sS'float_shares'
p7
S'   155,459,000'
p8
sS'symbol'
p9
S'FLR'
p10
sS'start_date'
p11
S'2000-12-01'
p12
sS'currency'
p13
S'USD'
p14
sS'industry'
p15
S'Heavy Construction'
p16
sS'shares_outstanding'
p17
S'   156,220,000'
p18
sb.