(istock_attributes
StockAttributes
p1
(dp2
S'sector'
p3
S'Industrial Goods'
p4
sS'name'
p5
S'Flowserve Corpora'
p6
sS'float_shares'
p7
S'   135,226,000'
p8
sS'symbol'
p9
S'FLS'
p10
sS'start_date'
p11
S'1990-03-26'
p12
sS'currency'
p13
S'USD'
p14
sS'industry'
p15
S'Diversified Machinery'
p16
sS'shares_outstanding'
p17
S'   136,308,000'
p18
sb.