(istock_attributes
StockAttributes
p1
(dp2
S'sector'
p3
S'Consumer Goods'
p4
sS'name'
p5
S'Fossil Group, Inc'
p6
sS'float_shares'
p7
S'    39,584,000'
p8
sS'symbol'
p9
S'FOSL'
p10
sS'start_date'
p11
S'1993-04-08'
p12
sS'currency'
p13
S'USD'
p14
sS'industry'
p15
S'Recreational Goods, Other'
p16
sS'shares_outstanding'
p17
S'    52,908,000'
p18
sb.