(istock_attributes
StockAttributes
p1
(dp2
S'sector'
p3
S'Services'
p4
sS'name'
p5
S'Twenty-First Cent'
p6
sS'float_shares'
p7
S'  1,860,606,000'
p8
sS'symbol'
p9
S'FOXA'
p10
sS'start_date'
p11
S'1996-03-11'
p12
sS'currency'
p13
S'USD'
p14
sS'industry'
p15
S'Entertainment - Diversified'
p16
sS'shares_outstanding'
p17
S'  2,190,056,000'
p18
sb.