(istock_attributes
StockAttributes
p1
(dp2
S'sector'
p3
S'Basic Materials'
p4
sS'name'
p5
S'TOTAL'
p6
sS'float_shares'
p7
S'  1,968,063,000'
p8
sS'symbol'
p9
S'FP.PA'
p10
sS'start_date'
p11
S'2000-01-03'
p12
sS'currency'
p13
S'EUR'
p14
sS'industry'
p15
S'Major Integrated Oil & Gas'
p16
sS'shares_outstanding'
p17
S'  2,275,165,000'
p18
sb.