(istock_attributes
StockAttributes
p1
(dp2
S'sector'
p3
S'Consumer Goods'
p4
sS'name'
p5
S'VALEO'
p6
sS'float_shares'
p7
S'    70,575,000'
p8
sS'symbol'
p9
S'FR.PA'
p10
sS'start_date'
p11
S'1984-05-30'
p12
sS'currency'
p13
S'EUR'
p14
sS'industry'
p15
S'Auto Parts'
p16
sS'shares_outstanding'
p17
S'    77,642,000'
p18
sb.