(istock_attributes
StockAttributes
p1
(dp2
S'sector'
p3
S'Basic Materials'
p4
sS'name'
p5
S'FMC Technologies,'
p6
sS'float_shares'
p7
S'   231,776,000'
p8
sS'symbol'
p9
S'FTI'
p10
sS'start_date'
p11
S'2001-06-15'
p12
sS'currency'
p13
S'USD'
p14
sS'industry'
p15
S'Oil & Gas Equipment & Services'
p16
sS'shares_outstanding'
p17
S'   233,846,000'
p18
sb.