(istock_attributes
StockAttributes
p1
(dp2
S'sector'
p3
S'Technology'
p4
sS'name'
p5
S'Frontier Communic'
p6
sS'float_shares'
p7
S'   993,424,000'
p8
sS'symbol'
p9
S'FTR'
p10
sS'start_date'
p11
S'1990-03-26'
p12
sS'currency'
p13
S'USD'
p14
sS'industry'
p15
S'Telecom Services - Domestic'
p16
sS'shares_outstanding'
p17
S'  1,002,103,000'
p18
sb.