(istock_attributes
StockAttributes
p1
(dp2
S'sector'
p3
S'Financial'
p4
sS'name'
p5
S'GENERALI'
p6
sS'float_shares'
p7
S'  1,217,715,000'
p8
sS'symbol'
p9
S'G.MI'
p10
sS'start_date'
p11
S'2000-01-03'
p12
sS'currency'
p13
S'EUR'
p14
sS'industry'
p15
S'Property & Casualty Insurance'
p16
sS'shares_outstanding'
p17
S'  1,556,564,000'
p18
sb.