(istock_attributes
StockAttributes
p1
(dp2
S'sector'
p3
S'Utilities'
p4
sS'name'
p5
S'AGL Resources, In'
p6
sS'float_shares'
p7
S'   118,326,000'
p8
sS'symbol'
p9
S'GAS'
p10
sS'start_date'
p11
S'1973-05-03'
p12
sS'currency'
p13
S'USD'
p14
sS'industry'
p15
S'Gas Utilities'
p16
sS'shares_outstanding'
p17
S'   119,478,000'
p18
sb.