(istock_attributes
StockAttributes
p1
(dp2
S'sector'
p3
S'Industrial Goods'
p4
sS'name'
p5
S'General Electric'
p6
sS'float_shares'
p7
S' 10,027,856,000'
p8
sS'symbol'
p9
S'GE'
p10
sS'start_date'
p11
S'1962-01-02'
p12
sS'currency'
p13
S'USD'
p14
sS'industry'
p15
S'Diversified Machinery'
p16
sS'shares_outstanding'
p17
S' 10,039,000,000'
p18
sb.