(istock_attributes
StockAttributes
p1
(dp2
S'sector'
p3
S'Services'
p4
sS'name'
p5
S'G4S'
p6
sS'float_shares'
p7
S'  1,426,668,000'
p8
sS'symbol'
p9
S'GFS.L'
p10
sS'start_date'
p11
S'2003-07-15'
p12
sS'currency'
p13
S'GBP'
p14
sS'industry'
p15
S'Security & Protection Services'
p16
sS'shares_outstanding'
p17
S'  1,545,000,000'
p18
sb.