(istock_attributes
StockAttributes
p1
(dp2
S'sector'
p3
S'Healthcare'
p4
sS'name'
p5
S'Gilead Sciences,'
p6
sS'float_shares'
p7
S'  1,503,345,000'
p8
sS'symbol'
p9
S'GILD'
p10
sS'start_date'
p11
S'1992-01-22'
p12
sS'currency'
p13
S'USD'
p14
sS'industry'
p15
S'Biotechnology'
p16
sS'shares_outstanding'
p17
S'  1,513,593,000'
p18
sb.