(istock_attributes
StockAttributes
p1
(dp2
S'sector'
p3
S'Consumer Goods'
p4
sS'name'
p5
S'GKN'
p6
sS'float_shares'
p7
S'  1,597,099,000'
p8
sS'symbol'
p9
S'GKN.L'
p10
sS'start_date'
p11
S'1988-07-01'
p12
sS'currency'
p13
S'GBP'
p14
sS'industry'
p15
S'Auto Parts'
p16
sS'shares_outstanding'
p17
S'  1,633,928,000'
p18
sb.