(istock_attributes
StockAttributes
p1
(dp2
S'sector'
p3
S'Basic Materials'
p4
sS'name'
p5
S'GLENCORE'
p6
sS'float_shares'
p7
S'  9,085,291,000'
p8
sS'symbol'
p9
S'GLEN.L'
p10
sS'start_date'
p11
S'2011-05-19'
p12
sS'currency'
p13
S'GBp'
p14
sS'industry'
p15
S'Industrial Metals & Minerals'
p16
sS'shares_outstanding'
p17
S' 13,124,103,000'
p18
sb.