(istock_attributes
StockAttributes
p1
(dp2
S'sector'
p3
S'Technology'
p4
sS'name'
p5
S'Corning Incorpora'
p6
sS'float_shares'
p7
S'  1,278,976,000'
p8
sS'symbol'
p9
S'GLW'
p10
sS'start_date'
p11
S'1981-12-31'
p12
sS'currency'
p13
S'USD'
p14
sS'industry'
p15
S'Diversified Electronics'
p16
sS'shares_outstanding'
p17
S'  1,281,848,000'
p18
sb.