(istock_attributes
StockAttributes
p1
(dp2
S'sector'
p3
S'Services'
p4
sS'name'
p5
S'Gamestop Corporat'
p6
sS'float_shares'
p7
S'   110,117,000'
p8
sS'symbol'
p9
S'GME'
p10
sS'start_date'
p11
S'2002-02-13'
p12
sS'currency'
p13
S'USD'
p14
sS'industry'
p15
S'Electronics Stores'
p16
sS'shares_outstanding'
p17
S'   112,667,000'
p18
sb.