(istock_attributes
StockAttributes
p1
(dp2
S'sector'
p3
S'Financial'
p4
sS'name'
p5
S'Genworth Financia'
p6
sS'float_shares'
p7
S'   495,206,000'
p8
sS'symbol'
p9
S'GNW'
p10
sS'start_date'
p11
S'2004-05-25'
p12
sS'currency'
p13
S'USD'
p14
sS'industry'
p15
S'Life Insurance'
p16
sS'shares_outstanding'
p17
S'   496,616,000'
p18
sb.