(istock_attributes
StockAttributes
p1
(dp2
S'sector'
p3
S'Technology'
p4
sS'name'
p5
S'Garmin Ltd.'
p6
sS'float_shares'
p7
S'   123,375,000'
p8
sS'symbol'
p9
S'GRMN'
p10
sS'start_date'
p11
S'2000-12-08'
p12
sS'currency'
p13
S'USD'
p14
sS'industry'
p15
S'Scientific & Technical Instruments'
p16
sS'shares_outstanding'
p17
S'   191,227,000'
p18
sb.