(istock_attributes
StockAttributes
p1
(dp2
S'sector'
p3
S'Financial'
p4
sS'name'
p5
S'Goldman Sachs Gro'
p6
sS'float_shares'
p7
S'   405,047,000'
p8
sS'symbol'
p9
S'GS'
p10
sS'start_date'
p11
S'1999-05-04'
p12
sS'currency'
p13
S'USD'
p14
sS'industry'
p15
S'Investment Brokerage - National'
p16
sS'shares_outstanding'
p17
S'   452,799,000'
p18
sb.