(istock_attributes
StockAttributes
p1
(dp2
S'sector'
p3
S'Healthcare'
p4
sS'name'
p5
S'GLAXOSMITHKLINE'
p6
sS'float_shares'
p7
S'  4,660,827,000'
p8
sS'symbol'
p9
S'GSK.L'
p10
sS'start_date'
p11
S'1988-07-01'
p12
sS'currency'
p13
S'GBp'
p14
sS'industry'
p15
S'Drug Manufacturers - Major'
p16
sS'shares_outstanding'
p17
S'  4,808,000,000'
p18
sb.