(istock_attributes
StockAttributes
p1
(dp2
S'sector'
p3
S'Services'
p4
sS'name'
p5
S'W.W. Grainger, In'
p6
sS'float_shares'
p7
S'    60,644,000'
p8
sS'symbol'
p9
S'GWW'
p10
sS'start_date'
p11
S'1984-12-17'
p12
sS'currency'
p13
S'USD'
p14
sS'industry'
p15
S'Industrial Equipment Wholesale'
p16
sS'shares_outstanding'
p17
S'    68,183,000'
p18
sb.