(istock_attributes
StockAttributes
p1
(dp2
S'sector'
p3
S'Consumer Goods'
p4
sS'name'
p5
S'Harman Internatio'
p6
sS'float_shares'
p7
S'    68,012,000'
p8
sS'symbol'
p9
S'HAR'
p10
sS'start_date'
p11
S'1986-11-14'
p12
sS'currency'
p13
S'USD'
p14
sS'industry'
p15
S'Electronic Equipment'
p16
sS'shares_outstanding'
p17
S'    68,515,000'
p18
sb.