(istock_attributes
StockAttributes
p1
(dp2
S'sector'
p3
S'Financial'
p4
sS'name'
p5
S'Hudson City Banco'
p6
sS'float_shares'
p7
S'   403,914,000'
p8
sS'symbol'
p9
S'HCBK'
p10
sS'start_date'
p11
S'1999-07-13'
p12
sS'currency'
p13
S'USD'
p14
sS'industry'
p15
S'Savings & Loans'
p16
sS'shares_outstanding'
p17
S'   499,227,000'
p18
sb.