(istock_attributes
StockAttributes
p1
(dp2
S'sector'
p3
S'Financial'
p4
sS'name'
p5
S'Health Care REIT,'
p6
sS'float_shares'
p7
S'   307,523,000'
p8
sS'symbol'
p9
S'HCN'
p10
sS'start_date'
p11
S'1992-03-17'
p12
sS'currency'
p13
S'USD'
p14
sS'industry'
p15
S'REIT - Healthcare Facilities'
p16
sS'shares_outstanding'
p17
S'   308,544,000'
p18
sb.