(istock_attributes
StockAttributes
p1
(dp2
S'sector'
p3
S'Consumer Goods'
p4
sS'name'
p5
S'HENKEL VZ'
p6
sS'float_shares'
p7
S'   276,231,000'
p8
sS'symbol'
p9
S'HEN3.DE'
p10
sS'start_date'
p11
S'2003-01-01'
p12
sS'currency'
p13
S'EUR'
p14
sS'industry'
p15
S'Personal Products'
p16
sS'shares_outstanding'
p17
S'   434,278,000'
p18
sb.