(istock_attributes
StockAttributes
p1
(dp2
S'sector'
p3
S'Financial'
p4
sS'name'
p5
S'HARGREAVES LANS'
p6
sS'float_shares'
p7
S'   219,464,000'
p8
sS'symbol'
p9
S'HL.L'
p10
sS'start_date'
p11
S'2007-05-15'
p12
sS'currency'
p13
S'GBp'
p14
sS'industry'
p15
S'Asset Management'
p16
sS'shares_outstanding'
p17
S'   470,771,000'
p18
sb.