(istock_attributes
StockAttributes
p1
(dp2
S'sector'
p3
S'Services'
p4
sS'name'
p5
S'Starwood Hotels &'
p6
sS'float_shares'
p7
S'   177,452,000'
p8
sS'symbol'
p9
S'HOT'
p10
sS'start_date'
p11
S'1987-11-05'
p12
sS'currency'
p13
S'USD'
p14
sS'industry'
p15
S'Lodging'
p16
sS'shares_outstanding'
p17
S'   178,575,000'
p18
sb.