(istock_attributes
StockAttributes
p1
(dp2
S'sector'
p3
S'Technology'
p4
sS'name'
p5
S'Hewlett-Packard C'
p6
sS'float_shares'
p7
S'  1,864,446,000'
p8
sS'symbol'
p9
S'HPQ'
p10
sS'start_date'
p11
S'1962-01-02'
p12
sS'currency'
p13
S'USD'
p14
sS'industry'
p15
S'Diversified Computer Systems'
p16
sS'shares_outstanding'
p17
S'  1,866,275,000'
p18
sb.