(istock_attributes
StockAttributes
p1
(dp2
S'sector'
p3
S'Services'
p4
sS'name'
p5
S'H&R Block, Inc. C'
p6
sS'float_shares'
p7
S'   274,279,000'
p8
sS'symbol'
p9
S'HRB'
p10
sS'start_date'
p11
S'1986-11-12'
p12
sS'currency'
p13
S'USD'
p14
sS'industry'
p15
S'Personal Services'
p16
sS'shares_outstanding'
p17
S'   275,088,000'
p18
sb.