(istock_attributes
StockAttributes
p1
(dp2
S'sector'
p3
S'Financial'
p4
sS'name'
p5
S'HSBC HLDG'
p6
sS'float_shares'
p7
S' 19,757,514,000'
p8
sS'symbol'
p9
S'HSBA.L'
p10
sS'start_date'
p11
S'1988-07-05'
p12
sS'currency'
p13
S'GBp'
p14
sS'industry'
p15
S'Money Center Banks'
p16
sS'shares_outstanding'
p17
S' 20,182,353,000'
p18
sb.