(istock_attributes
StockAttributes
p1
(dp2
S'sector'
p3
S'Healthcare'
p4
sS'name'
p5
S'Hospira Inc'
p6
sS'float_shares'
p7
S'   168,021,000'
p8
sS'symbol'
p9
S'HSP'
p10
sS'start_date'
p11
S'2004-05-03'
p12
sS'currency'
p13
S'USD'
p14
sS'industry'
p15
S'Drugs - Generic'
p16
sS'shares_outstanding'
p17
S'   168,731,000'
p18
sb.