(istock_attributes
StockAttributes
p1
(dp2
S'sector'
p3
S'Financial'
p4
sS'name'
p5
S'Host Hotels & Res'
p6
sS'float_shares'
p7
S'   744,701,000'
p8
sS'symbol'
p9
S'HST'
p10
sS'start_date'
p11
S'1983-04-06'
p12
sS'currency'
p13
S'USD'
p14
sS'industry'
p15
S'REIT - Hotel/Motel'
p16
sS'shares_outstanding'
p17
S'   757,318,000'
p18
sb.