(istock_attributes
StockAttributes
p1
(dp2
S'sector'
p3
S'Basic Materials'
p4
sS'name'
p5
S'Iamgold Corporati'
p6
sS'float_shares'
p7
S'   371,352,000'
p8
sS'symbol'
p9
S'IAG'
p10
sS'start_date'
p11
S'2003-07-15'
p12
sS'currency'
p13
S'USD'
p14
sS'industry'
p15
S'Gold'
p16
sS'shares_outstanding'
p17
S'   376,899,000'
p18
sb.