(istock_attributes
StockAttributes
p1
(dp2
S'sector'
p3
S'Services'
p4
sS'name'
p5
S'INTL. CONS. AIR G'
p6
sS'float_shares'
p7
S'  2,075,184,000'
p8
sS'symbol'
p9
S'IAG.L'
p10
sS'start_date'
p11
S'2003-01-02'
p12
sS'currency'
p13
S'GBP'
p14
sS'industry'
p15
S'Major Airlines'
p16
sS'shares_outstanding'
p17
S'  2,077,844,000'
p18
sb.