(istock_attributes
StockAttributes
p1
(dp2
S'sector'
p3
S'Utilities'
sS'name'
p4
S'IBE.MC'
p5
sS'float_shares'
p6
S'N/A'
p7
sS'symbol'
p8
S'IBE.MC'
p9
sS'start_date'
p10
S'2000-01-03'
p11
sS'currency'
p12
S'EUR'
p13
sS'industry'
p14
S'Diversified Utilities'
sS'shares_outstanding'
p15
S'N/A'
p16
sb.
