(istock_attributes
StockAttributes
p1
(dp2
S'sector'
p3
S'Financial'
p4
sS'name'
p5
S'Intercontinental'
p6
sS'float_shares'
p7
S'   113,119,000'
p8
sS'symbol'
p9
S'ICE'
p10
sS'start_date'
p11
S'2005-11-16'
p12
sS'currency'
p13
S'USD'
p14
sS'industry'
p15
S'Diversified Investments'
p16
sS'shares_outstanding'
p17
S'   115,047,000'
p18
sb.