(istock_attributes
StockAttributes
p1
(dp2
S'sector'
p3
S'Services'
p4
sS'name'
p5
S'Intercontinental'
p6
sS'float_shares'
p7
S'   226,959,000'
p8
sS'symbol'
p9
S'IHG'
p10
sS'start_date'
p11
S'2003-04-10'
p12
sS'currency'
p13
S'USD'
p14
sS'industry'
p15
S'Lodging'
p16
sS'shares_outstanding'
p17
S'   236,307,000'
p18
sb.