(istock_attributes
StockAttributes
p1
(dp2
S'sector'
p3
S'Financial'
p4
sS'name'
p5
S'3I GROUP'
p6
sS'float_shares'
p7
S'   854,107,000'
p8
sS'symbol'
p9
S'III.L'
p10
sS'start_date'
p11
S'1993-03-31'
p12
sS'currency'
p13
S'GBP'
p14
sS'industry'
p15
S'Asset Management'
p16
sS'shares_outstanding'
p17
S'   945,028,000'
p18
sb.