(istock_attributes
StockAttributes
p1
(dp2
S'sector'
p3
S'Technology'
p4
sS'name'
p5
S'Intermolecular, I'
p6
sS'float_shares'
p7
S'    12,558,000'
p8
sS'symbol'
p9
S'IMI'
p10
sS'start_date'
p11
S'2011-11-18'
p12
sS'currency'
p13
S'USD'
p14
sS'industry'
p15
S'Semiconductor Equipment & Materials'
p16
sS'shares_outstanding'
p17
S'    47,593,000'
p18
sb.