(istock_attributes
StockAttributes
p1
(dp2
S'sector'
p3
S'Consumer Goods'
p4
sS'name'
p5
S'IMPERIAL TOBACCO'
p6
sS'float_shares'
p7
S'   947,527,000'
p8
sS'symbol'
p9
S'IMT.L'
p10
sS'start_date'
p11
S'1996-10-01'
p12
sS'currency'
p13
S'GBp'
p14
sS'industry'
p15
S'Tobacco Products, Other'
p16
sS'shares_outstanding'
p17
S'   953,400,000'
p18
sb.