(istock_attributes
StockAttributes
p1
(dp2
S'sector'
p3
S'Technology'
p4
sS'name'
p5
S'Intel Corporation'
p6
sS'float_shares'
p7
S'  4,828,472,000'
p8
sS'symbol'
p9
S'INTC'
p10
sS'start_date'
p11
S'1980-03-17'
p12
sS'currency'
p13
S'USD'
p14
sS'industry'
p15
S'Semiconductor - Broad Line'
p16
sS'shares_outstanding'
p17
S'  4,835,000,000'
p18
sb.