(istock_attributes
StockAttributes
p1
(dp2
S'sector'
p3
S'Technology'
p4
sS'name'
p5
S'Intuit Inc.'
p6
sS'float_shares'
p7
S'   271,557,000'
p8
sS'symbol'
p9
S'INTU'
p10
sS'start_date'
p11
S'1993-03-22'
p12
sS'currency'
p13
S'USD'
p14
sS'industry'
p15
S'Application Software'
p16
sS'shares_outstanding'
p17
S'   285,540,000'
p18
sb.