(istock_attributes
StockAttributes
p1
(dp2
S'sector'
p3
S'N/A'
p4
sS'name'
p5
S'INTU'
p6
sS'float_shares'
p7
S'   828,878,000'
p8
sS'symbol'
p9
S'INTU.L'
p10
sS'start_date'
p11
S'1989-01-31'
p12
sS'currency'
p13
S'GBP'
p14
sS'industry'
p15
S'N/A'
p16
sS'shares_outstanding'
p17
S'  1,255,800,000'
p18
sb.