(istock_attributes
StockAttributes
p1
(dp2
S'sector'
p3
S'Consumer Goods'
p4
sS'name'
p5
S'International Pap'
p6
sS'float_shares'
p7
S'   423,200,000'
p8
sS'symbol'
p9
S'IP'
p10
sS'start_date'
p11
S'1970-01-02'
p12
sS'currency'
p13
S'USD'
p14
sS'industry'
p15
S'Packaging & Containers'
p16
sS'shares_outstanding'
p17
S'   427,022,000'
p18
sb.