(istock_attributes
StockAttributes
p1
(dp2
S'sector'
p3
S'Technology'
p4
sS'name'
p5
S'IRON MOUNTAIN INC'
p6
sS'float_shares'
p7
S'   170,432,000'
p8
sS'symbol'
p9
S'IRM'
p10
sS'start_date'
p11
S'1996-02-01'
p12
sS'currency'
p13
S'USD'
p14
sS'industry'
p15
S'Business Software & Services'
p16
sS'shares_outstanding'
p17
S'   193,704,000'
p18
sb.