(istock_attributes
StockAttributes
p1
(dp2
S'sector'
p3
S'Financial'
p4
sS'name'
p5
S'INTESA SANPAOLO'
p6
sS'float_shares'
p7
S' 15,917,345,000'
p8
sS'symbol'
p9
S'ISP.MI'
p10
sS'start_date'
p11
S'2000-01-03'
p12
sS'currency'
p13
S'EUR'
p14
sS'industry'
p15
S'Money Center Banks'
p16
sS'shares_outstanding'
p17
S' 18,728,271,000'
p18
sb.