(istock_attributes
StockAttributes
p1
(dp2
S'sector'
p3
S'Services'
p4
sS'name'
p5
S'INTERTEK GROUP'
p6
sS'float_shares'
p7
S'   156,585,000'
p8
sS'symbol'
p9
S'ITRK.L'
p10
sS'start_date'
p11
S'2002-05-24'
p12
sS'currency'
p13
S'GBP'
p14
sS'industry'
p15
S'Business Services'
p16
sS'shares_outstanding'
p17
S'   161,100,000'
p18
sb.