(istock_attributes
StockAttributes
p1
(dp2
S'sector'
p3
S'Services'
p4
sS'name'
p5
S'ITV'
p6
sS'float_shares'
p7
S'  3,588,529,000'
p8
sS'symbol'
p9
S'ITV.L'
p10
sS'start_date'
p11
S'2000-01-04'
p12
sS'currency'
p13
S'GBP'
p14
sS'industry'
p15
S'Broadcasting - TV'
p16
sS'shares_outstanding'
p17
S'  4,003,000,000'
p18
sb.