(istock_attributes
StockAttributes
p1
(dp2
S'sector'
p3
S'Consumer Goods'
p4
sS'name'
p5
S'Johnson Controls,'
p6
sS'float_shares'
p7
S'   662,971,000'
p8
sS'symbol'
p9
S'JCI'
p10
sS'start_date'
p11
S'1985-03-27'
p12
sS'currency'
p13
S'USD'
p14
sS'industry'
p15
S'Auto Parts'
p16
sS'shares_outstanding'
p17
S'   665,500,000'
p18
sb.