(istock_attributes
StockAttributes
p1
(dp2
S'sector'
p3
S'Technology'
p4
sS'name'
p5
S'Juniper Networks,'
p6
sS'float_shares'
p7
S'   396,192,000'
p8
sS'symbol'
p9
S'JNPR'
p10
sS'start_date'
p11
S'1999-06-25'
p12
sS'currency'
p13
S'USD'
p14
sS'industry'
p15
S'Networking & Communication Devices'
p16
sS'shares_outstanding'
p17
S'   448,399,000'
p18
sb.