(istock_attributes
StockAttributes
p1
(dp2
S'sector'
p3
S'Industrial Goods'
p4
sS'name'
p5
S'Joy Global Inc. C'
p6
sS'float_shares'
p7
S'    97,353,000'
p8
sS'symbol'
p9
S'JOY'
p10
sS'start_date'
p11
S'2001-05-25'
p12
sS'currency'
p13
S'USD'
p14
sS'industry'
p15
S'Farm & Construction Machinery'
p16
sS'shares_outstanding'
p17
S'    98,175,000'
p18
sb.