(istock_attributes
StockAttributes
p1
(dp2
S'sector'
p3
S'Services'
p4
sS'name'
p5
S'Nordstrom, Inc. C'
p6
sS'float_shares'
p7
S'   141,459,000'
p8
sS'symbol'
p9
S'JWN'
p10
sS'start_date'
p11
S'1986-07-09'
p12
sS'currency'
p13
S'USD'
p14
sS'industry'
p15
S'Apparel Stores'
p16
sS'shares_outstanding'
p17
S'   192,611,000'
p18
sb.