(istock_attributes
StockAttributes
p1
(dp2
S'sector'
p3
S'Services'
p4
sS'name'
p5
S'KINGFISHER'
p6
sS'float_shares'
p7
S'  2,278,541,000'
p8
sS'symbol'
p9
S'KGF.L'
p10
sS'start_date'
p11
S'1988-07-01'
p12
sS'currency'
p13
S'GBP'
p14
sS'industry'
p15
S'Home Improvement Stores'
p16
sS'shares_outstanding'
p17
S'  2,364,000,000'
p18
sb.