(istock_attributes
StockAttributes
p1
(dp2
S'sector'
p3
S'Financial'
p4
sS'name'
p5
S'Kimco Realty Corp'
p6
sS'float_shares'
p7
S'   395,345,000'
p8
sS'symbol'
p9
S'KIM'
p10
sS'start_date'
p11
S'1991-11-22'
p12
sS'currency'
p13
S'USD'
p14
sS'industry'
p15
S'REIT - Retail'
p16
sS'shares_outstanding'
p17
S'   411,338,000'
p18
sb.