(istock_attributes
StockAttributes
p1
(dp2
S'sector'
p3
S'Technology'
p4
sS'name'
p5
S'KLA-Tencor Corpor'
p6
sS'float_shares'
p7
S'   163,638,000'
p8
sS'symbol'
p9
S'KLAC'
p10
sS'start_date'
p11
S'1990-03-26'
p12
sS'currency'
p13
S'USD'
p14
sS'industry'
p15
S'Semiconductor Equipment & Materials'
p16
sS'shares_outstanding'
p17
S'   164,476,000'
p18
sb.