(istock_attributes
StockAttributes
p1
(dp2
S'sector'
p3
S'Consumer Goods'
p4
sS'name'
p5
S'Kimberly-Clark Co'
p6
sS'float_shares'
p7
S'   370,976,000'
p8
sS'symbol'
p9
S'KMB'
p10
sS'start_date'
p11
S'1984-12-17'
p12
sS'currency'
p13
S'USD'
p14
sS'industry'
p15
S'Personal Products'
p16
sS'shares_outstanding'
p17
S'   372,455,000'
p18
sb.