(istock_attributes
StockAttributes
p1
(dp2
S'sector'
p3
S'Basic Materials'
p4
sS'name'
p5
S'Kinder Morgan, In'
p6
sS'float_shares'
p7
S'   690,281,000'
p8
sS'symbol'
p9
S'KMI'
p10
sS'start_date'
p11
S'2011-02-11'
p12
sS'currency'
p13
S'USD'
p14
sS'industry'
p15
S'Oil & Gas Pipelines'
p16
sS'shares_outstanding'
p17
S'  1,028,229,000'
p18
sb.