(istock_attributes
StockAttributes
p1
(dp2
S'sector'
p3
S'Services'
p4
sS'name'
p5
S'CarMax Inc'
p6
sS'float_shares'
p7
S'   214,221,000'
p8
sS'symbol'
p9
S'KMX'
p10
sS'start_date'
p11
S'1997-02-04'
p12
sS'currency'
p13
S'USD'
p14
sS'industry'
p15
S'Auto Dealerships'
p16
sS'shares_outstanding'
p17
S'   215,394,000'
p18
sb.