(istock_attributes
StockAttributes
p1
(dp2
S'sector'
p3
S'Consumer Goods'
p4
sS'name'
p5
S'Michael Kors Hold'
p6
sS'float_shares'
p7
S'   186,418,000'
p8
sS'symbol'
p9
S'KORS'
p10
sS'start_date'
p11
S'2011-12-15'
p12
sS'currency'
p13
S'USD'
p14
sS'industry'
p15
S'Textile - Apparel Clothing'
p16
sS'shares_outstanding'
p17
S'   204,330,000'
p18
sb.