(istock_attributes
StockAttributes
p1
(dp2
S'sector'
p3
S'Financial'
p4
sS'name'
p5
S'Loews Corporation'
p6
sS'float_shares'
p7
S'   301,868,000'
p8
sS'symbol'
p9
S'L'
sS'start_date'
p10
S'1987-07-10'
p11
sS'currency'
p12
S'USD'
p13
sS'industry'
p14
S'Property & Casualty Insurance'
p15
sS'shares_outstanding'
p16
S'   381,108,000'
p17
sb.