(istock_attributes
StockAttributes
p1
(dp2
S'sector'
p3
S'Financial'
p4
sS'name'
p5
S'Gladstone Land Co'
p6
sS'float_shares'
p7
S'     5,273,000'
p8
sS'symbol'
p9
S'LAND'
p10
sS'start_date'
p11
S'2013-01-29'
p12
sS'currency'
p13
S'USD'
p14
sS'industry'
p15
S'REIT - Diversified'
p16
sS'shares_outstanding'
p17
S'     7,753,000'
p18
sb.