(istock_attributes
StockAttributes
p1
(dp2
S'sector'
p3
S'Consumer Goods'
p4
sS'name'
p5
S'Leggett & Platt,'
p6
sS'float_shares'
p7
S'   134,365,000'
p8
sS'symbol'
p9
S'LEG'
p10
sS'start_date'
p11
S'1987-11-05'
p12
sS'currency'
p13
S'USD'
p14
sS'industry'
p15
S'Home Furnishings & Fixtures'
p16
sS'shares_outstanding'
p17
S'   137,600,000'
p18
sb.