(istock_attributes
StockAttributes
p1
(dp2
S'sector'
p3
S'Industrial Goods'
p4
sS'name'
p5
S'Lennar Corporatio'
p6
sS'float_shares'
p7
S'   178,992,000'
p8
sS'symbol'
p9
S'LEN'
p10
sS'start_date'
p11
S'1987-11-05'
p12
sS'currency'
p13
S'USD'
p14
sS'industry'
p15
S'Residential Construction'
p16
sS'shares_outstanding'
p17
S'   205,244,000'
p18
sb.