(istock_attributes
StockAttributes
p1
(dp2
S'sector'
p3
S'Services'
p4
sS'name'
p5
S'DT.LUFTHANSA N'
p6
sS'float_shares'
p7
S'           0'
p8
sS'symbol'
p9
S'LHA.DE'
p10
sS'start_date'
p11
S'2000-01-03'
p12
sS'currency'
p13
S'EUR'
p14
sS'industry'
p15
S'Major Airlines'
p16
sS'shares_outstanding'
p17
S'   459,836,000'
p18
sb.