(istock_attributes
StockAttributes
p1
(dp2
S'sector'
p3
S'Healthcare'
p4
sS'name'
p5
S'Eli Lilly and Com'
p6
sS'float_shares'
p7
S'   934,862,000'
p8
sS'symbol'
p9
S'LLY'
p10
sS'start_date'
p11
S'1972-06-01'
p12
sS'currency'
p13
S'USD'
p14
sS'industry'
p15
S'Drug Manufacturers - Major'
p16
sS'shares_outstanding'
p17
S'  1,069,599,000'
p18
sb.