(istock_attributes
StockAttributes
p1
(dp2
S'sector'
p3
S'Financial'
p4
sS'name'
p5
S'Lincoln National'
p6
sS'float_shares'
p7
S'   258,693,000'
p8
sS'symbol'
p9
S'LNC'
p10
sS'start_date'
p11
S'1990-01-02'
p12
sS'currency'
p13
S'USD'
p14
sS'industry'
p15
S'Life Insurance'
p16
sS'shares_outstanding'
p17
S'   259,789,000'
p18
sb.