(istock_attributes
StockAttributes
p1
(dp2
S'sector'
p3
S'Consumer Goods'
p4
sS'name'
p5
S'Lorillard, Inc Co'
p6
sS'float_shares'
p7
S'   358,256,000'
p8
sS'symbol'
p9
S'LO'
p10
sS'start_date'
p11
S'2008-06-10'
p12
sS'currency'
p13
S'USD'
p14
sS'industry'
p15
S'Cigarettes'
p16
sS'shares_outstanding'
p17
S'   360,020,000'
p18
sb.