(istock_attributes
StockAttributes
p1
(dp2
S'sector'
p3
S'Financial'
p4
sS'name'
p5
S'LSE GROUP'
p6
sS'float_shares'
p7
S'   222,439,000'
p8
sS'symbol'
p9
S'LSE.L'
p10
sS'start_date'
p11
S'2001-07-20'
p12
sS'currency'
p13
S'GBP'
p14
sS'industry'
p15
S'Asset Management'
p16
sS'shares_outstanding'
p17
S'   270,700,000'
p18
sb.