(istock_attributes
StockAttributes
p1
(dp2
S'sector'
p3
S'Financial'
p4
sS'name'
p5
S'Leucadia National'
p6
sS'float_shares'
p7
S'   316,457,000'
p8
sS'symbol'
p9
S'LUK'
p10
sS'start_date'
p11
S'1987-11-05'
p12
sS'currency'
p13
S'USD'
p14
sS'industry'
p15
S'Investment Brokerage - National'
p16
sS'shares_outstanding'
p17
S'   368,530,000'
p18
sb.