(istock_attributes
StockAttributes
p1
(dp2
S'sector'
p3
S'Basic Materials'
p4
sS'name'
p5
S'LyondellBasell In'
p6
sS'float_shares'
p7
S'   408,990,000'
p8
sS'symbol'
p9
S'LYB'
p10
sS'start_date'
p11
S'2010-04-28'
p12
sS'currency'
p13
S'USD'
p14
sS'industry'
p15
S'Specialty Chemicals'
p16
sS'shares_outstanding'
p17
S'   500,667,000'
p18
sb.