(istock_attributes
StockAttributes
p1
(dp2
S'sector'
p3
S'Financial'
p4
sS'name'
p5
S'Macerich Company'
p6
sS'float_shares'
p7
S'   139,783,000'
p8
sS'symbol'
p9
S'MAC'
p10
sS'start_date'
p11
S'1994-03-10'
p12
sS'currency'
p13
S'USD'
p14
sS'industry'
p15
S'REIT - Retail'
p16
sS'shares_outstanding'
p17
S'   140,920,000'
p18
sb.