(istock_attributes
StockAttributes
p1
(dp2
S'sector'
p3
S'Consumer Goods'
p4
sS'name'
p5
S'Mattel, Inc.'
p6
sS'float_shares'
p7
S'   337,695,000'
p8
sS'symbol'
p9
S'MAT'
p10
sS'start_date'
p11
S'1982-01-04'
p12
sS'currency'
p13
S'USD'
p14
sS'industry'
p15
S'Toys & Games'
p16
sS'shares_outstanding'
p17
S'   338,826,000'
p18
sb.