(istock_attributes
StockAttributes
p1
(dp2
S'sector'
p3
S'Services'
p4
sS'name'
p5
S'McKesson Corporat'
p6
sS'float_shares'
p7
S'   231,104,000'
p8
sS'symbol'
p9
S'MCK'
p10
sS'start_date'
p11
S'1994-11-15'
p12
sS'currency'
p13
S'USD'
p14
sS'industry'
p15
S'Drugs Wholesale'
p16
sS'shares_outstanding'
p17
S'   231,881,000'
p18
sb.