(istock_attributes
StockAttributes
p1
(dp2
S'sector'
p3
S'Services'
p4
sS'name'
p5
S"Moody's Corporati"
p6
sS'float_shares'
p7
S'   171,838,000'
p8
sS'symbol'
p9
S'MCO'
p10
sS'start_date'
p11
S'1994-10-31'
p12
sS'currency'
p13
S'USD'
p14
sS'industry'
p15
S'Business Services'
p16
sS'shares_outstanding'
p17
S'   208,600,000'
p18
sb.