(istock_attributes
StockAttributes
p1
(dp2
S'sector'
p3
S'Consumer Goods'
p4
sS'name'
p5
S'MICHELIN'
p6
sS'float_shares'
p7
S'   179,339,000'
p8
sS'symbol'
p9
S'ML.PA'
p10
sS'start_date'
p11
S'2000-01-03'
p12
sS'currency'
p13
S'EUR'
p14
sS'industry'
p15
S'Rubber & Plastics'
p16
sS'shares_outstanding'
p17
S'   186,208,000'
p18
sb.