(istock_attributes
StockAttributes
p1
(dp2
S'sector'
p3
S'Industrial Goods'
p4
sS'name'
p5
S'3M Company Common'
p6
sS'float_shares'
p7
S'   637,345,000'
p8
sS'symbol'
p9
S'MMM'
p10
sS'start_date'
p11
S'1970-01-02'
p12
sS'currency'
p13
S'USD'
p14
sS'industry'
p15
S'Diversified Machinery'
p16
sS'shares_outstanding'
p17
S'   640,818,000'
p18
sb.