(istock_attributes
StockAttributes
p1
(dp2
S'sector'
p3
S'Consumer Goods'
p4
sS'name'
p5
S'MONDI'
p6
sS'float_shares'
p7
S'   451,068,000'
p8
sS'symbol'
p9
S'MNDI.L'
p10
sS'start_date'
p11
S'2007-06-29'
p12
sS'currency'
p13
S'GBp'
p14
sS'industry'
p15
S'Paper & Paper Products'
p16
sS'shares_outstanding'
p17
S'   484,000,000'
p18
sb.