(istock_attributes
StockAttributes
p1
(dp2
S'sector'
p3
S'Consumer Goods'
p4
sS'name'
p5
S'Monster Beverage'
p6
sS'float_shares'
p7
S'   147,621,000'
p8
sS'symbol'
p9
S'MNST'
p10
sS'start_date'
p11
S'1995-08-18'
p12
sS'currency'
p13
S'USD'
p14
sS'industry'
p15
S'Beverages - Soft Drinks'
p16
sS'shares_outstanding'
p17
S'   167,176,000'
p18
sb.