(istock_attributes
StockAttributes
p1
(dp2
S'sector'
p3
S'Consumer Goods'
p4
sS'name'
p5
S'Altria Group, Inc'
p6
sS'float_shares'
p7
S'  1,969,538,000'
p8
sS'symbol'
p9
S'MO'
p10
sS'start_date'
p11
S'1970-01-02'
p12
sS'currency'
p13
S'USD'
p14
sS'industry'
p15
S'Cigarettes'
p16
sS'shares_outstanding'
p17
S'  1,976,000,000'
p18
sb.