(istock_attributes
StockAttributes
p1
(dp2
S'sector'
p3
S'Basic Materials'
p4
sS'name'
p5
S'Mosaic Company (T'
p6
sS'float_shares'
p7
S'   315,096,000'
p8
sS'symbol'
p9
S'MOS'
p10
sS'start_date'
p11
S'1988-01-26'
p12
sS'currency'
p13
S'USD'
p14
sS'industry'
p15
S'Agricultural Chemicals'
p16
sS'shares_outstanding'
p17
S'   371,317,000'
p18
sb.