(istock_attributes
StockAttributes
p1
(dp2
S'sector'
p3
S'Financial'
p4
sS'name'
p5
S'Morgan Stanley Co'
p6
sS'float_shares'
p7
S'  1,521,998,000'
p8
sS'symbol'
p9
S'MS'
p10
sS'start_date'
p11
S'1993-02-23'
p12
sS'currency'
p13
S'USD'
p14
sS'industry'
p15
S'Investment Brokerage - National'
p16
sS'shares_outstanding'
p17
S'  1,958,385,000'
p18
sb.