(istock_attributes
StockAttributes
p1
(dp2
S'sector'
p3
S'Technology'
p4
sS'name'
p5
S'Microsoft Corpora'
p6
sS'float_shares'
p7
S'  7,603,866,000'
p8
sS'symbol'
p9
S'MSFT'
p10
sS'start_date'
p11
S'1986-03-13'
p12
sS'currency'
p13
S'USD'
p14
sS'industry'
p15
S'Business Software & Services'
p16
sS'shares_outstanding'
p17
S'  8,242,852,000'
p18
sb.