(istock_attributes
StockAttributes
p1
(dp2
S'sector'
p3
S'Technology'
p4
sS'name'
p5
S'Motorola Solution'
p6
sS'float_shares'
p7
S'   220,898,000'
p8
sS'symbol'
p9
S'MSI'
p10
sS'start_date'
p11
S'1977-01-03'
p12
sS'currency'
p13
S'USD'
p14
sS'industry'
p15
S'Communication Equipment'
p16
sS'shares_outstanding'
p17
S'   250,878,000'
p18
sb.