(istock_attributes
StockAttributes
p1
(dp2
S'sector'
p3
S'Financial'
p4
sS'name'
p5
S'M&T Bank Corporat'
p6
sS'float_shares'
p7
S'   122,011,000'
p8
sS'symbol'
p9
S'MTB'
p10
sS'start_date'
p11
S'1991-10-04'
p12
sS'currency'
p13
S'USD'
p14
sS'industry'
p15
S'Regional - Northeast Banks'
p16
sS'shares_outstanding'
p17
S'   132,141,000'
p18
sb.