(istock_attributes
StockAttributes
p1
(dp2
S'sector'
p3
S'Basic Materials'
p4
sS'name'
p5
S'Murphy Oil Corpor'
p6
sS'float_shares'
p7
S'   167,103,000'
p8
sS'symbol'
p9
S'MUR'
p10
sS'start_date'
p11
S'1983-04-06'
p12
sS'currency'
p13
S'USD'
p14
sS'industry'
p15
S'Independent Oil & Gas'
p16
sS'shares_outstanding'
p17
S'   177,535,000'
p18
sb.