(istock_attributes
StockAttributes
p1
(dp2
S'sector'
p3
S'Healthcare'
p4
sS'name'
p5
S'Mylan Inc.'
p6
sS'float_shares'
p7
S'   371,410,000'
p8
sS'symbol'
p9
S'MYL'
p10
sS'start_date'
p11
S'1987-12-18'
p12
sS'currency'
p13
S'USD'
p14
sS'industry'
p15
S'Drugs - Generic'
p16
sS'shares_outstanding'
p17
S'   374,100,000'
p18
sb.