(istock_attributes
StockAttributes
p1
(dp2
S'sector'
p3
S'Financial'
p4
sS'name'
p5
S'Navient Corporati'
p6
sS'float_shares'
p7
S'   406,999,000'
p8
sS'symbol'
p9
S'NAVI'
p10
sS'start_date'
p11
S'2014-04-17'
p12
sS'currency'
p13
S'USD'
p14
sS'industry'
p15
S'Credit Services'
p16
sS'shares_outstanding'
p17
S'   410,219,000'
p18
sb.