(istock_attributes
StockAttributes
p1
(dp2
S'sector'
p3
S'Basic Materials'
p4
sS'name'
p5
S'Nabors Industries'
p6
sS'float_shares'
p7
S' 280,090,000'
p8
sS'symbol'
p9
S'NBR'
p10
sS'start_date'
p11
S'1991-02-28'
p12
sS'currency'
p13
S'USD'
p14
sS'industry'
p15
S'Oil & Gas Drilling & Exploration'
p16
sS'shares_outstanding'
p17
S' 292,621,000'
p18
sb.