(istock_attributes
StockAttributes
p1
(dp2
S'sector'
p3
S'Basic Materials'
p4
sS'name'
p5
S'Newmont Mining Co'
p6
sS'float_shares'
p7
S'   497,653,000'
p8
sS'symbol'
p9
S'NEM'
p10
sS'start_date'
p11
S'1983-04-06'
p12
sS'currency'
p13
S'USD'
p14
sS'industry'
p15
S'Gold'
p16
sS'shares_outstanding'
p17
S'   498,795,000'
p18
sb.