(istock_attributes
StockAttributes
p1
(dp2
S'sector'
p3
S'Services'
p4
sS'name'
p5
S'Netflix, Inc.'
p6
sS'float_shares'
p7
S'    59,025,000'
p8
sS'symbol'
p9
S'NFLX'
p10
sS'start_date'
p11
S'2002-05-23'
p12
sS'currency'
p13
S'USD'
p14
sS'industry'
p15
S'CATV Systems'
p16
sS'shares_outstanding'
p17
S'    60,246,000'
p18
sb.