(istock_attributes
StockAttributes
p1
(dp2
S'sector'
p3
S'Basic Materials'
p4
sS'name'
p5
S'Newfield Explorat'
p6
sS'float_shares'
p7
S'   125,728,000'
p8
sS'symbol'
p9
S'NFX'
p10
sS'start_date'
p11
S'1993-11-12'
p12
sS'currency'
p13
S'USD'
p14
sS'industry'
p15
S'Independent Oil & Gas'
p16
sS'shares_outstanding'
p17
S'   135,272,000'
p18
sb.