(istock_attributes
StockAttributes
p1
(dp2
S'sector'
p3
S'Basic Materials'
p4
sS'name'
p5
S'Novagold Resource'
p6
sS'float_shares'
p7
S'   176,478,000'
p8
sS'symbol'
p9
S'NG'
p10
sS'start_date'
p11
S'2003-12-04'
p12
sS'currency'
p13
S'USD'
p14
sS'industry'
p15
S'Gold'
p16
sS'shares_outstanding'
p17
S'   317,287,000'
p18
sb.