(istock_attributes
StockAttributes
p1
(dp2
S'sector'
p3
S'Utilities'
p4
sS'name'
p5
S'NiSource Inc Comm'
p6
sS'float_shares'
p7
S'   313,338,000'
p8
sS'symbol'
p9
S'NI'
p10
sS'start_date'
p11
S'1990-01-02'
p12
sS'currency'
p13
S'USD'
p14
sS'industry'
p15
S'Diversified Utilities'
p16
sS'shares_outstanding'
p17
S'   315,699,000'
p18
sb.