(istock_attributes
StockAttributes
p1
(dp2
S'sector'
p3
S'Consumer Goods'
p4
sS'name'
p5
S'Nike, Inc. Common'
p6
sS'float_shares'
p7
S'   681,909,000'
p8
sS'symbol'
p9
S'NKE'
p10
sS'start_date'
p11
S'1980-12-02'
p12
sS'currency'
p13
S'USD'
p14
sS'industry'
p15
S'Textile - Apparel Footwear & Accessories'
p16
sS'shares_outstanding'
p17
S'   861,508,000'
p18
sb.