(istock_attributes
StockAttributes
p1
(dp2
S'sector'
p3
S'Technology'
p4
sS'name'
p5
S'Nielsen N.V. Comm'
p6
sS'float_shares'
p7
S'   378,772,000'
p8
sS'symbol'
p9
S'NLSN'
p10
sS'start_date'
p11
S'2011-01-27'
p12
sS'currency'
p13
S'USD'
p14
sS'industry'
p15
S'Information & Delivery Services'
p16
sS'shares_outstanding'
p17
S'   381,074,000'
p18
sb.