(istock_attributes
StockAttributes
p1
(dp2
S'sector'
p3
S'Basic Materials'
p4
sS'name'
p5
S'Nucor Corporation'
p6
sS'float_shares'
p7
S'   318,464,000'
p8
sS'symbol'
p9
S'NUE'
p10
sS'start_date'
p11
S'1990-01-02'
p12
sS'currency'
p13
S'USD'
p14
sS'industry'
p15
S'Steel & Iron'
p16
sS'shares_outstanding'
p17
S'   320,023,000'
p18
sb.