(istock_attributes
StockAttributes
p1
(dp2
S'sector'
p3
S'Utilities'
p4
sS'name'
p5
S'ONEOK, Inc. Commo'
p6
sS'float_shares'
p7
S'   206,174,000'
p8
sS'symbol'
p9
S'OKE'
p10
sS'start_date'
p11
S'1985-07-01'
p12
sS'currency'
p13
S'USD'
p14
sS'industry'
p15
S'Gas Utilities'
p16
sS'shares_outstanding'
p17
S'   208,002,000'
p18
sb.