(istock_attributes
StockAttributes
p1
(dp2
S'sector'
p3
S' '
sS'name'
p4
S'OML'
p5
sS'float_shares'
p6
S'N/A'
p7
sS'symbol'
p8
S'OML'
p9
sS'start_date'
p10
S' '
sS'currency'
p11
NsS'industry'
p12
S' '
sS'shares_outstanding'
p13
S'N/A'
p14
sb.