(istock_attributes
StockAttributes
p1
(dp2
S'sector'
p3
S'Financial'
p4
sS'name'
p5
S'OLD MUTUAL'
p6
sS'float_shares'
p7
S'  3,883,010,000'
p8
sS'symbol'
p9
S'OML.L'
p10
sS'start_date'
p11
S'1999-07-12'
p12
sS'currency'
p13
S'GBP'
p14
sS'industry'
p15
S'Life Insurance'
p16
sS'shares_outstanding'
p17
S'  4,462,000,000'
p18
sb.