(istock_attributes
StockAttributes
p1
(dp2
S'sector'
p3
S'N/A'
p4
sS'name'
p5
S'ORANGE'
p6
sS'float_shares'
p7
S'  1,800,453,000'
p8
sS'symbol'
p9
S'ORA.PA'
p10
sS'start_date'
p11
S'2000-01-03'
p12
sS'currency'
p13
S'EUR'
p14
sS'industry'
p15
S'N/A'
p16
sS'shares_outstanding'
p17
S'  2,631,048,000'
p18
sb.