(istock_attributes
StockAttributes
p1
(dp2
S'sector'
p3
S'Technology'
p4
sS'name'
p5
S'Oracle Corporatio'
p6
sS'float_shares'
p7
S'  3,311,912,000'
p8
sS'symbol'
p9
S'ORCL'
p10
sS'start_date'
p11
S'1986-03-12'
p12
sS'currency'
p13
S'USD'
p14
sS'industry'
p15
S'Application Software'
p16
sS'shares_outstanding'
p17
S'  4,431,304,000'
p18
sb.