(istock_attributes
StockAttributes
p1
(dp2
S'sector'
p3
S'Financial'
p4
sS'name'
p5
S"People's United F"
p6
sS'float_shares'
p7
S'   296,536,000'
p8
sS'symbol'
p9
S'PBCT'
p10
sS'start_date'
p11
S'1990-03-26'
p12
sS'currency'
p13
S'USD'
p14
sS'industry'
p15
S'Savings & Loans'
p16
sS'shares_outstanding'
p17
S'   299,920,000'
p18
sb.