(istock_attributes
StockAttributes
p1
(dp2
S'sector'
p3
S'Consumer Goods'
p4
sS'name'
p5
S'Pitney Bowes Inc.'
p6
sS'float_shares'
p7
S'   202,599,000'
p8
sS'symbol'
p9
S'PBI'
p10
sS'start_date'
p11
S'1972-06-01'
p12
sS'currency'
p13
S'USD'
p14
sS'industry'
p15
S'Business Equipment'
p16
sS'shares_outstanding'
p17
S'   203,521,000'
p18
sb.