(istock_attributes
StockAttributes
p1
(dp2
S'sector'
p3
S'Industrial Goods'
p4
sS'name'
p5
S'Plum Creek Timber'
p6
sS'float_shares'
p7
S'   174,929,000'
p8
sS'symbol'
p9
S'PCL'
p10
sS'start_date'
p11
S'1989-06-02'
p12
sS'currency'
p13
S'USD'
p14
sS'industry'
p15
S'Lumber, Wood Production'
p16
sS'shares_outstanding'
p17
S'   175,899,000'
p18
sb.