(istock_attributes
StockAttributes
p1
(dp2
S'sector'
p3
S'Industrial Goods'
p4
sS'name'
p5
S'Precision Castpar'
p6
sS'float_shares'
p7
S'   143,059,000'
p8
sS'symbol'
p9
S'PCP'
p10
sS'start_date'
p11
S'1990-01-12'
p12
sS'currency'
p13
S'USD'
p14
sS'industry'
p15
S'Metal Fabrication'
p16
sS'shares_outstanding'
p17
S'   143,473,000'
p18
sb.