(istock_attributes
StockAttributes
p1
(dp2
S'sector'
p3
S'Services'
p4
sS'name'
p5
S'Patterson Compani'
p6
sS'float_shares'
p7
S'    81,713,000'
p8
sS'symbol'
p9
S'PDCO'
p10
sS'start_date'
p11
S'1992-10-28'
p12
sS'currency'
p13
S'USD'
p14
sS'industry'
p15
S'Medical Equipment Wholesale'
p16
sS'shares_outstanding'
p17
S'    99,329,000'
p18
sb.