(istock_attributes
StockAttributes
p1
(dp2
S'sector'
p3
S'Utilities'
p4
sS'name'
p5
S'Public Service En'
p6
sS'float_shares'
p7
S'   504,381,000'
p8
sS'symbol'
p9
S'PEG'
p10
sS'start_date'
p11
S'1980-01-02'
p12
sS'currency'
p13
S'USD'
p14
sS'industry'
p15
S'Diversified Utilities'
p16
sS'shares_outstanding'
p17
S'   505,959,000'
p18
sb.