(istock_attributes
StockAttributes
p1
(dp2
S'sector'
p3
S'Services'
p4
sS'name'
p5
S'PetSmart, Inc'
p6
sS'float_shares'
p7
S'    89,038,000'
p8
sS'symbol'
p9
S'PETM'
p10
sS'start_date'
p11
S'1993-07-23'
p12
sS'currency'
p13
S'USD'
p14
sS'industry'
p15
S'Specialty Retail, Other'
p16
sS'shares_outstanding'
p17
S'    99,331,000'
p18
sb.