(istock_attributes
StockAttributes
p1
(dp2
S'sector'
p3
S'Basic Materials'
p4
sS'name'
p5
S'PETROFAC'
p6
sS'float_shares'
p7
S'   248,653,000'
p8
sS'symbol'
p9
S'PFC.L'
p10
sS'start_date'
p11
S'2005-10-04'
p12
sS'currency'
p13
S'GBP'
p14
sS'industry'
p15
S'Oil & Gas Equipment & Services'
p16
sS'shares_outstanding'
p17
S'   341,000,000'
p18
sb.