(istock_attributes
StockAttributes
p1
(dp2
S'sector'
p3
S'Healthcare'
p4
sS'name'
p5
S'Pfizer, Inc. Comm'
p6
sS'float_shares'
p7
S'  6,333,951,000'
p8
sS'symbol'
p9
S'PFE'
p10
sS'start_date'
p11
S'1972-06-01'
p12
sS'currency'
p13
S'USD'
p14
sS'industry'
p15
S'Drug Manufacturers - Major'
p16
sS'shares_outstanding'
p17
S'  6,340,863,000'
p18
sb.