(istock_attributes
StockAttributes
p1
(dp2
S'sector'
p3
S'Industrial Goods'
p4
sS'name'
p5
S'Parker-Hannifin C'
p6
sS'float_shares'
p7
S'   146,813,000'
p8
sS'symbol'
p9
S'PH'
p10
sS'start_date'
p11
S'1985-07-01'
p12
sS'currency'
p13
S'USD'
p14
sS'industry'
p15
S'Industrial Equipment & Components'
p16
sS'shares_outstanding'
p17
S'   148,645,000'
p18
sb.