(istock_attributes
StockAttributes
p1
(dp2
S'sector'
p3
S'Consumer Goods'
sS'name'
p4
S'ROY.PHILIPS'
p5
sS'float_shares'
p6
S'           0'
p7
sS'symbol'
p8
S'PHIA.AS'
p9
sS'start_date'
p10
S'2000-08-01'
p11
sS'currency'
p12
S'EUR'
p13
sS'industry'
p14
S'Electronic Equipment'
sS'shares_outstanding'
p15
S'           0'
p16
sb.
