(istock_attributes
StockAttributes
p1
(dp2
S'sector'
p3
S'Industrial Goods'
p4
sS'name'
p5
S'Pall Corporation'
p6
sS'float_shares'
p7
S'   106,605,000'
p8
sS'symbol'
p9
S'PLL'
p10
sS'start_date'
p11
S'1991-08-21'
p12
sS'currency'
p13
S'USD'
p14
sS'industry'
p15
S'Diversified Machinery'
p16
sS'shares_outstanding'
p17
S'   106,804,000'
p18
sb.