(istock_attributes
StockAttributes
p1
(dp2
S'sector'
p3
S'Utilities'
p4
sS'name'
p5
S'Pinnacle West Cap'
p6
sS'float_shares'
p7
S'   109,775,000'
p8
sS'symbol'
p9
S'PNW'
p10
sS'start_date'
p11
S'1984-07-19'
p12
sS'currency'
p13
S'USD'
p14
sS'industry'
p15
S'Electric Utilities'
p16
sS'shares_outstanding'
p17
S'   110,450,000'
p18
sb.