(istock_attributes
StockAttributes
p1
(dp2
S'sector'
p3
S'Utilities'
p4
sS'name'
p5
S'PEPCO Holdings, I'
p6
sS'float_shares'
p7
S'   251,131,000'
p8
sS'symbol'
p9
S'POM'
p10
sS'start_date'
p11
S'1987-01-02'
p12
sS'currency'
p13
S'USD'
p14
sS'industry'
p15
S'Electric Utilities'
p16
sS'shares_outstanding'
p17
S'   251,879,000'
p18
sb.