(istock_attributes
StockAttributes
p1
(dp2
S'sector'
p3
S'Basic Materials'
p4
sS'name'
p5
S'PPG Industries, I'
p6
sS'float_shares'
p7
S'   136,436,000'
p8
sS'symbol'
p9
S'PPG'
p10
sS'start_date'
p11
S'1983-04-06'
p12
sS'currency'
p13
S'USD'
p14
sS'industry'
p15
S'Specialty Chemicals'
p16
sS'shares_outstanding'
p17
S'   137,235,000'
p18
sb.