(istock_attributes
StockAttributes
p1
(dp2
S'sector'
p3
S'Healthcare'
p4
sS'name'
p5
S'Perrigo Company p'
p6
sS'float_shares'
p7
S'   133,112,000'
p8
sS'symbol'
p9
S'PRGO'
p10
sS'start_date'
p11
S'1991-12-17'
p12
sS'currency'
p13
S'USD'
p14
sS'industry'
p15
S'Drug Related Products'
p16
sS'shares_outstanding'
p17
S'   133,804,000'
p18
sb.