(istock_attributes
StockAttributes
p1
(dp2
S'sector'
p3
S'Financial'
p4
sS'name'
p5
S'Prudential Financ'
p6
sS'float_shares'
p7
S'   456,559,000'
p8
sS'symbol'
p9
S'PRU'
p10
sS'start_date'
p11
S'2001-12-13'
p12
sS'currency'
p13
S'USD'
p14
sS'industry'
p15
S'Life Insurance'
p16
sS'shares_outstanding'
p17
S'   460,000,000'
p18
sb.