(istock_attributes
StockAttributes
p1
(dp2
S'sector'
p3
S'Basic Materials'
p4
sS'name'
p5
S'Phillips 66 Commo'
p6
sS'float_shares'
p7
S'   552,096,000'
p8
sS'symbol'
p9
S'PSX'
p10
sS'start_date'
p11
S'2012-04-12'
p12
sS'currency'
p13
S'USD'
p14
sS'industry'
p15
S'Oil & Gas Refining & Marketing'
p16
sS'shares_outstanding'
p17
S'   553,513,000'
p18
sb.