(istock_attributes
StockAttributes
p1
(dp2
S'sector'
p3
S'Consumer Goods'
p4
sS'name'
p5
S'PVH Corp. Common'
p6
sS'float_shares'
p7
S'    82,160,000'
p8
sS'symbol'
p9
S'PVH'
p10
sS'start_date'
p11
S'1987-07-10'
p12
sS'currency'
p13
S'USD'
p14
sS'industry'
p15
S'Textile - Apparel Clothing'
p16
sS'shares_outstanding'
p17
S'    82,393,000'
p18
sb.