(istock_attributes
StockAttributes
p1
(dp2
S'sector'
p3
S'Industrial Goods'
p4
sS'name'
p5
S'Quanta Services,'
p6
sS'float_shares'
p7
S'   212,606,000'
p8
sS'symbol'
p9
S'PWR'
p10
sS'start_date'
p11
S'1998-02-12'
p12
sS'currency'
p13
S'USD'
p14
sS'industry'
p15
S'General Contractors'
p16
sS'shares_outstanding'
p17
S'   216,795,000'
p18
sb.