(istock_attributes
StockAttributes
p1
(dp2
S'sector'
p3
S'Basic Materials'
p4
sS'name'
p5
S'Pioneer Natural R'
p6
sS'float_shares'
p7
S'   141,225,000'
p8
sS'symbol'
p9
S'PXD'
p10
sS'start_date'
p11
S'1997-08-08'
p12
sS'currency'
p13
S'USD'
p14
sS'industry'
p15
S'Independent Oil & Gas'
p16
sS'shares_outstanding'
p17
S'   143,098,000'
p18
sb.