(istock_attributes
StockAttributes
p1
(dp2
S'sector'
p3
S'Technology'
p4
sS'name'
p5
S'QUALCOMM Incorpor'
p6
sS'float_shares'
p7
S'  1,671,732,000'
p8
sS'symbol'
p9
S'QCOM'
p10
sS'start_date'
p11
S'1991-12-16'
p12
sS'currency'
p13
S'USD'
p14
sS'industry'
p15
S'Communication Equipment'
p16
sS'shares_outstanding'
p17
S'  1,676,023,000'
p18
sb.