(istock_attributes
StockAttributes
p1
(dp2
S'sector'
p3
S'Basic Materials'
p4
sS'name'
p5
S'QEP Resources, In'
p6
sS'float_shares'
p7
S'   178,042,000'
p8
sS'symbol'
p9
S'QEP'
p10
sS'start_date'
p11
S'2010-06-16'
p12
sS'currency'
p13
S'USD'
p14
sS'industry'
p15
S'Oil & Gas Pipelines'
p16
sS'shares_outstanding'
p17
S'   180,091,000'
p18
sb.