(istock_attributes
StockAttributes
p1
(dp2
S'sector'
p3
S'Consumer Goods'
p4
sS'name'
p5
S'Reynolds American'
p6
sS'float_shares'
p7
S'   307,023,000'
p8
sS'symbol'
p9
S'RAI'
p10
sS'start_date'
p11
S'1999-06-01'
p12
sS'currency'
p13
S'USD'
p14
sS'industry'
p15
S'Cigarettes'
p16
sS'shares_outstanding'
p17
S'   531,283,000'
p18
sb.