(istock_attributes
StockAttributes
p1
(dp2
S'sector'
p3
S'N/A'
p4
sS'name'
p5
S'Royal Bank of Sco'
p6
sS'float_shares'
p7
S'  2,596,121,000'
p8
sS'symbol'
p9
S'RBS'
p10
sS'start_date'
p11
S'2007-NaN-18'
p12
sS'currency'
p13
S'USD'
p14
sS'industry'
p15
S'N/A'
p16
sS'shares_outstanding'
p17
S'  5,692,000,000'
p18
sb.