(istock_attributes
StockAttributes
p1
(dp2
S'sector'
p3
S'Financial'
p4
sS'name'
p5
S'ROYAL BK SCOTL GR'
p6
sS'float_shares'
p7
S'  5,192,242,000'
p8
sS'symbol'
p9
S'RBS.L'
p10
sS'start_date'
p11
S'1988-07-01'
p12
sS'currency'
p13
S'GBP'
p14
sS'industry'
p15
S'Money Center Banks'
p16
sS'shares_outstanding'
p17
S' 11,384,000,000'
p18
sb.