(istock_attributes
StockAttributes
p1
(dp2
S'sector'
p3
S'Basic Materials'
p4
sS'name'
p5
S'ROYAL DUTCH SHELL'
p6
sS'float_shares'
p7
S'  6,068,372,000'
p8
sS'symbol'
p9
S'RDSA.L'
p10
sS'start_date'
p11
S'2005-07-15'
p12
sS'currency'
p13
S'GBP'
p14
sS'industry'
p15
S'Major Integrated Oil & Gas'
p16
sS'shares_outstanding'
p17
S'  6,320,299,000'
p18
sb.