(istock_attributes
StockAttributes
p1
(dp2
S'sector'
p3
S'Services'
p4
sS'name'
p5
S'REED ELSEVIER PLC'
p6
sS'float_shares'
p7
S'  1,107,206,000'
p8
sS'symbol'
p9
S'REL.L'
p10
sS'start_date'
p11
S'1988-07-01'
p12
sS'currency'
p13
S'GBP'
p14
sS'industry'
p15
S'Publishing - Newspapers'
p16
sS'shares_outstanding'
p17
S'  1,138,199,000'
p18
sb.