(istock_attributes
StockAttributes
p1
(dp2
S'sector'
p3
S'Services'
p4
sS'name'
p5
S'Robert Half Inter'
p6
sS'float_shares'
p7
S'   128,099,000'
p8
sS'symbol'
p9
S'RHI'
p10
sS'start_date'
p11
S'1992-03-10'
p12
sS'currency'
p13
S'USD'
p14
sS'industry'
p15
S'Staffing & Outsourcing Services'
p16
sS'shares_outstanding'
p17
S'   134,054,000'
p18
sb.