(istock_attributes
StockAttributes
p1
(dp2
S'sector'
p3
S'Technology'
p4
sS'name'
p5
S'Red Hat, Inc. Com'
p6
sS'float_shares'
p7
S'   186,409,000'
p8
sS'symbol'
p9
S'RHT'
p10
sS'start_date'
p11
S'1999-08-11'
p12
sS'currency'
p13
S'USD'
p14
sS'industry'
p15
S'Application Software'
p16
sS'shares_outstanding'
p17
S'   187,822,000'
p18
sb.