(istock_attributes
StockAttributes
p1
(dp2
S'sector'
p3
S'Basic Materials'
p4
sS'name'
p5
S'Transocean Ltd (S'
p6
sS'float_shares'
p7
S'   327,306,000'
p8
sS'symbol'
p9
S'RIG'
p10
sS'start_date'
p11
S'1993-05-28'
p12
sS'currency'
p13
S'USD'
p14
sS'industry'
p15
S'Oil & Gas Drilling & Exploration'
p16
sS'shares_outstanding'
p17
S'   362,189,000'
p18
sb.