(istock_attributes
StockAttributes
p1
(dp2
S'sector'
p3
S'Basic Materials'
p4
sS'name'
p5
S'Rio Tinto Plc Com'
p6
sS'float_shares'
p7
S'  1,634,362,000'
p8
sS'symbol'
p9
S'RIO'
p10
sS'start_date'
p11
S'1990-06-28'
p12
sS'currency'
p13
S'USD'
p14
sS'industry'
p15
S'Industrial Metals & Minerals'
p16
sS'shares_outstanding'
p17
S'  1,849,599,000'
p18
sb.