(istock_attributes
StockAttributes
p1
(dp2
S'sector'
p3
S'Consumer Goods'
p4
sS'name'
p5
S'Ralph Lauren Corp'
p6
sS'float_shares'
p7
S'    60,364,000'
p8
sS'symbol'
p9
S'RL'
p10
sS'start_date'
p11
S'1997-06-12'
p12
sS'currency'
p13
S'USD'
p14
sS'industry'
p15
S'Textile - Apparel Clothing'
p16
sS'shares_outstanding'
p17
S'    87,704,000'
p18
sb.