(istock_attributes
StockAttributes
p1
(dp2
S'sector'
p3
S'Services'
p4
sS'name'
p5
S'ROYAL MAIL'
p6
sS'float_shares'
p7
S'   515,120,000'
p8
sS'symbol'
p9
S'RMG.L'
p10
sS'start_date'
p11
S'2013-10-11'
p12
sS'currency'
p13
S'GBP'
p14
sS'industry'
p15
S'Air Delivery & Freight Services'
p16
sS'shares_outstanding'
p17
S'  1,000,000,000'
p18
sb.