(istock_attributes
StockAttributes
p1
(dp2
S'sector'
p3
S'Industrial Goods'
p4
sS'name'
p5
S'Roper Industries,'
p6
sS'float_shares'
p7
S'    98,493,000'
p8
sS'symbol'
p9
S'ROP'
p10
sS'start_date'
p11
S'1992-02-13'
p12
sS'currency'
p13
S'USD'
p14
sS'industry'
p15
S'Diversified Machinery'
p16
sS'shares_outstanding'
p17
S'   100,068,000'
p18
sb.