(istock_attributes
StockAttributes
p1
(dp2
S'sector'
p3
S'Services'
p4
sS'name'
p5
S'Ross Stores, Inc.'
p6
sS'float_shares'
p7
S'   204,820,000'
p8
sS'symbol'
p9
S'ROST'
p10
sS'start_date'
p11
S'1986-07-09'
p12
sS'currency'
p13
S'USD'
p14
sS'industry'
p15
S'Apparel Stores'
p16
sS'shares_outstanding'
p17
S'   209,831,000'
p18
sb.