(istock_attributes
StockAttributes
p1
(dp2
S'sector'
p3
S'Industrial Goods'
p4
sS'name'
p5
S'ROLLS-ROYCE HLDGS'
p6
sS'float_shares'
p7
S'  1,834,840,000'
p8
sS'symbol'
p9
S'RR.L'
p10
sS'start_date'
p11
S'1988-07-01'
p12
sS'currency'
p13
S'GBp'
p14
sS'industry'
p15
S'Aerospace/Defense - Major Diversified'
p16
sS'shares_outstanding'
p17
S'  1,872,000,000'
p18
sb.