(istock_attributes
StockAttributes
p1
(dp2
S'sector'
p3
S'Basic Materials'
p4
sS'name'
p5
S'RANDGOLD RESOURCE'
p6
sS'float_shares'
p7
S'    91,789,000'
p8
sS'symbol'
p9
S'RRS.L'
p10
sS'start_date'
p11
S'1997-07-01'
p12
sS'currency'
p13
S'GBP'
p14
sS'industry'
p15
S'Gold'
p16
sS'shares_outstanding'
p17
S'    92,674,000'
p18
sb.