(istock_attributes
StockAttributes
p1
(dp2
S'sector'
p3
S'Utilities'
p4
sS'name'
p5
S'RWE'
p6
sS'float_shares'
p7
S'   573,654,000'
p8
sS'symbol'
p9
S'RWE.DE'
p10
sS'start_date'
p11
S'2000-11-28'
p12
sS'currency'
p13
S'EUR'
p14
sS'industry'
p15
S'Diversified Utilities'
p16
sS'shares_outstanding'
p17
S'   580,000,000'
p18
sb.