(istock_attributes
StockAttributes
p1
(dp2
S'sector'
p3
S'Consumer Goods'
p4
sS'name'
p5
S'SABMILLER'
p6
sS'float_shares'
p7
S'   870,455,000'
p8
sS'symbol'
p9
S'SAB.L'
p10
sS'start_date'
p11
S'1999-03-08'
p12
sS'currency'
p13
S'GBP'
p14
sS'industry'
p15
S'Beverages - Brewers'
p16
sS'shares_outstanding'
p17
S'  1,599,691,000'
p18
sb.