(i__main__
StockAttributes
p1
(dp2
S'sector'
p3
S'Financial'
sS'name'
p4
S'SAN.MC'
p5
sS'float_shares'
p6
S'N/A'
p7
sS'symbol'
p8
S'SAN.MC'
p9
sS'start_date'
p10
S'2000-01-03'
p11
sS'currency'
p12
NsS'industry'
p13
S'Foreign Regional Banks'
sS'shares_outstanding'
p14
S'N/A'
p15
sb.
