(istock_attributes
StockAttributes
p1
(dp2
S'sector'
p3
S'Basic Materials'
p4
sS'name'
p5
S'SandRidge Mississ'
p6
sS'float_shares'
p7
S'    31,049,000'
p8
sS'symbol'
p9
S'SDR'
p10
sS'start_date'
p11
S'2012-04-18'
p12
sS'currency'
p13
S'USD'
p14
sS'industry'
p15
S'Independent Oil & Gas'
p16
sS'shares_outstanding'
p17
S'    49,724,000'
p18
sb.