(istock_attributes
StockAttributes
p1
(dp2
S'sector'
p3
S'Financial'
p4
sS'name'
p5
S'SCHRODERS'
p6
sS'float_shares'
p7
S'   134,507,000'
p8
sS'symbol'
p9
S'SDR.L'
p10
sS'start_date'
p11
S'1988-07-01'
p12
sS'currency'
p13
S'GBP'
p14
sS'industry'
p15
S'Asset Management'
p16
sS'shares_outstanding'
p17
S'   269,700,000'
p18
sb.