(istock_attributes
StockAttributes
p1
(dp2
S'sector'
p3
S'Consumer Goods'
p4
sS'name'
p5
S'Sealed Air Corpor'
p6
sS'float_shares'
p7
S'   206,789,000'
p8
sS'symbol'
p9
S'SEE'
p10
sS'start_date'
p11
S'1987-12-30'
p12
sS'currency'
p13
S'USD'
p14
sS'industry'
p15
S'Packaging & Containers'
p16
sS'shares_outstanding'
p17
S'   210,399,000'
p18
sb.