(istock_attributes
StockAttributes
p1
(dp2
S'sector'
p3
S'Technology'
p4
sS'name'
p5
S'SAGE GRP'
p6
sS'float_shares'
p7
S'  1,068,388,000'
p8
sS'symbol'
p9
S'SGE.L'
p10
sS'start_date'
p11
S'1989-12-13'
p12
sS'currency'
p13
S'GBP'
p14
sS'industry'
p15
S'Technical & System Software'
p16
sS'shares_outstanding'
p17
S'  1,097,900,000'
p18
sb.