(istock_attributes
StockAttributes
p1
(dp2
S'sector'
p3
S' '
sS'name'
p4
S'SHP'
p5
sS'float_shares'
p6
S'N/A'
p7
sS'symbol'
p8
S'SHP'
p9
sS'start_date'
p10
S' '
sS'currency'
p11
S'014'
p12
sS'industry'
p13
S' '
sS'shares_outstanding'
p14
S'N/A'
p15
sb.