(istock_attributes
StockAttributes
p1
(dp2
S'sector'
p3
S'Consumer Goods'
p4
sS'name'
p5
S'J.M. Smucker Comp'
p6
sS'float_shares'
p7
S'    97,014,000'
p8
sS'symbol'
p9
S'SJM'
p10
sS'start_date'
p11
S'1994-10-31'
p12
sS'currency'
p13
S'USD'
p14
sS'industry'
p15
S'Processed & Packaged Goods'
p16
sS'shares_outstanding'
p17
S'   101,817,000'
p18
sb.