(istock_attributes
StockAttributes
p1
(dp2
S'sector'
p3
S'Financial'
p4
sS'name'
p5
S'STANDARD LIFE'
p6
sS'float_shares'
p7
S'  2,326,409,000'
p8
sS'symbol'
p9
S'SL.L'
p10
sS'start_date'
p11
S'2006-07-10'
p12
sS'currency'
p13
S'GBp'
p14
sS'industry'
p15
S'Life Insurance'
p16
sS'shares_outstanding'
p17
S'  2,387,750,000'
p18
sb.