(istock_attributes
StockAttributes
p1
(dp2
S'sector'
p3
S'Industrial Goods'
p4
sS'name'
p5
S'SMITHS GROUP'
p6
sS'float_shares'
p7
S'   385,315,000'
p8
sS'symbol'
p9
S'SMIN.L'
p10
sS'start_date'
p11
S'1988-07-01'
p12
sS'currency'
p13
S'GBP'
p14
sS'industry'
p15
S'Diversified Machinery'
p16
sS'shares_outstanding'
p17
S'   394,455,000'
p18
sb.