(istock_attributes
StockAttributes
p1
(dp2
S'sector'
p3
S'Basic Materials'
p4
sS'name'
p5
S'Sanchez Energy Co'
p6
sS'float_shares'
p7
S'    50,481,000'
p8
sS'symbol'
p9
S'SN'
p10
sS'start_date'
p11
S'2011-12-15'
p12
sS'currency'
p13
S'USD'
p14
sS'industry'
p15
S'Independent Oil & Gas'
p16
sS'shares_outstanding'
p17
S'    55,841,000'
p18
sb.