(istock_attributes
StockAttributes
p1
(dp2
S'sector'
p3
S'Services'
p4
sS'name'
p5
S'Scripps Networks'
p6
sS'float_shares'
p7
S'    75,233,000'
p8
sS'symbol'
p9
S'SNI'
p10
sS'start_date'
p11
S'2008-06-12'
p12
sS'currency'
p13
S'USD'
p14
sS'industry'
p15
S'Broadcasting - TV'
p16
sS'shares_outstanding'
p17
S'   140,122,000'
p18
sb.