(istock_attributes
StockAttributes
p1
(dp2
S'sector'
p3
S'Basic Materials'
p4
sS'name'
p5
S'SOLVAY'
p6
sS'float_shares'
p7
S'    56,340,000'
p8
sS'symbol'
p9
S'SOLB.BR'
p10
sS'start_date'
p11
S'2001-09-03'
p12
sS'currency'
p13
S'EUR'
p14
sS'industry'
p15
S'Chemicals - Major Diversified'
p16
sS'shares_outstanding'
p17
S'    83,333,000'
p18
sb.
