(istock_attributes
StockAttributes
p1
(dp2
S'sector'
p3
S'Basic Materials'
sS'name'
p4
S'SOLVAY'
p5
sS'float_shares'
p6
S'           0'
p7
sS'symbol'
p8
S'SOLB.PA'
p9
sS'start_date'
p10
S' '
sS'currency'
p11
S'EUR'
p12
sS'industry'
p13
S'Specialty Chemicals'
sS'shares_outstanding'
p14
S'           0'
p15
sb.
