(istock_attributes
StockAttributes
p1
(dp2
S'sector'
p3
S'Services'
p4
sS'name'
p5
S'SPORTS DIRECT'
p6
sS'float_shares'
p7
S'   239,257,000'
p8
sS'symbol'
p9
S'SPD.L'
p10
sS'start_date'
p11
S'2007-02-27'
p12
sS'currency'
p13
S'GBP'
p14
sS'industry'
p15
S'Specialty Retail, Other'
p16
sS'shares_outstanding'
p17
S'   592,294,000'
p18
sb.