(istock_attributes
StockAttributes
p1
(dp2
S'sector'
p3
S'Industrial Goods'
p4
sS'name'
p5
S'Stericycle, Inc.'
p6
sS'float_shares'
p7
S'    84,221,000'
p8
sS'symbol'
p9
S'SRCL'
p10
sS'start_date'
p11
S'1996-08-23'
p12
sS'currency'
p13
S'USD'
p14
sS'industry'
p15
S'Waste Management'
p16
sS'shares_outstanding'
p17
S'    86,116,000'
p18
sb.