(istock_attributes
StockAttributes
p1
(dp2
S'sector'
p3
S'Utilities'
p4
sS'name'
p5
S'Sempra Energy Com'
p6
sS'float_shares'
p7
S'   231,462,000'
p8
sS'symbol'
p9
S'SRE'
p10
sS'start_date'
p11
S'1998-06-29'
p12
sS'currency'
p13
S'USD'
p14
sS'industry'
p15
S'Diversified Utilities'
p16
sS'shares_outstanding'
p17
S'   245,688,000'
p18
sb.