(istock_attributes
StockAttributes
p1
(dp2
S'sector'
p3
S'Utilities'
p4
sS'name'
p5
S'SSE'
p6
sS'float_shares'
p7
S'   990,877,000'
p8
sS'symbol'
p9
S'SSE.L'
p10
sS'start_date'
p11
S'1991-06-17'
p12
sS'currency'
p13
S'GBp'
p14
sS'industry'
p15
S'Diversified Utilities'
p16
sS'shares_outstanding'
p17
S'  1,019,379,000'
p18
sb.