(istock_attributes
StockAttributes
p1
(dp2
S'sector'
p3
S'Healthcare'
p4
sS'name'
p5
S'St. Jude Medical,'
p6
sS'float_shares'
p7
S'   283,008,000'
p8
sS'symbol'
p9
S'STJ'
p10
sS'start_date'
p11
S'1989-12-07'
p12
sS'currency'
p13
S'USD'
p14
sS'industry'
p15
S'Medical Appliances & Equipment'
p16
sS'shares_outstanding'
p17
S'   290,000,000'
p18
sb.