(istock_attributes
StockAttributes
p1
(dp2
S'sector'
p3
S'Financial'
p4
sS'name'
p5
S"ST. JAMES'S"
p6
sS'float_shares'
p7
S'   506,844,000'
p8
sS'symbol'
p9
S'STJ.L'
p10
sS'start_date'
p11
S'1990-08-28'
p12
sS'currency'
p13
S'GBp'
p14
sS'industry'
p15
S'Life Insurance'
p16
sS'shares_outstanding'
p17
S'   513,000,000'
p18
sb.