(istock_attributes
StockAttributes
p1
(dp2
S'sector'
p3
S'Technology'
p4
sS'name'
p5
S'STMICROELECTRONIC'
p6
sS'float_shares'
p7
S'   625,365,000'
p8
sS'symbol'
p9
S'STM.PA'
p10
sS'start_date'
p11
S'2001-NaN-03'
p12
sS'currency'
p13
S'EUR'
p14
sS'industry'
p15
S'Semiconductor - Broad Line'
p16
sS'shares_outstanding'
p17
S'   882,536,000'
p18
sb.