(istock_attributes
StockAttributes
p1
(dp2
S'sector'
p3
S'Financial'
p4
sS'name'
p5
S'State Street Corp'
p6
sS'float_shares'
p7
S'   416,005,000'
p8
sS'symbol'
p9
S'STT'
p10
sS'start_date'
p11
S'1986-07-09'
p12
sS'currency'
p13
S'USD'
p14
sS'industry'
p15
S'Asset Management'
p16
sS'shares_outstanding'
p17
S'   419,931,000'
p18
sb.