(istock_attributes
StockAttributes
p1
(dp2
S'sector'
p3
S'Consumer Goods'
p4
sS'name'
p5
S'Constellation Bra'
p6
sS'float_shares'
p7
S'   163,455,000'
p8
sS'symbol'
p9
S'STZ'
p10
sS'start_date'
p11
S'1992-03-17'
p12
sS'currency'
p13
S'USD'
p14
sS'industry'
p15
S'Beverages - Wineries & Distillers'
p16
sS'shares_outstanding'
p17
S'   192,872,000'
p18
sb.