(istock_attributes
StockAttributes
p1
(dp2
S'sector'
p3
S'Industrial Goods'
p4
sS'name'
p5
S'Stanley Black & D'
p6
sS'float_shares'
p7
S'   155,098,000'
p8
sS'symbol'
p9
S'SWK'
p10
sS'start_date'
p11
S'1985-07-01'
p12
sS'currency'
p13
S'USD'
p14
sS'industry'
p15
S'Machine Tools & Accessories'
p16
sS'shares_outstanding'
p17
S'   156,652,000'
p18
sb.