(istock_attributes
StockAttributes
p1
(dp2
S'sector'
p3
S'Basic Materials'
p4
sS'name'
p5
S'Southwestern Ener'
p6
sS'float_shares'
p7
S'   347,186,000'
p8
sS'symbol'
p9
S'SWN'
p10
sS'start_date'
p11
S'1987-12-30'
p12
sS'currency'
p13
S'USD'
p14
sS'industry'
p15
S'Independent Oil & Gas'
p16
sS'shares_outstanding'
p17
S'   351,457,000'
p18
sb.