(istock_attributes
StockAttributes
p1
(dp2
S'sector'
p3
S'Services'
p4
sS'name'
p5
S'Safeway Inc. Comm'
p6
sS'float_shares'
p7
S'   226,650,000'
p8
sS'symbol'
p9
S'SWY'
p10
sS'start_date'
p11
S'1990-04-26'
p12
sS'currency'
p13
S'USD'
p14
sS'industry'
p15
S'Grocery Stores'
p16
sS'shares_outstanding'
p17
S'   229,000,000'
p18
sb.