(istock_attributes
StockAttributes
p1
(dp2
S'sector'
p3
S'Healthcare'
p4
sS'name'
p5
S'Stryker Corporati'
p6
sS'float_shares'
p7
S'   328,866,000'
p8
sS'symbol'
p9
S'SYK'
p10
sS'start_date'
p11
S'1988-02-01'
p12
sS'currency'
p13
S'USD'
p14
sS'industry'
p15
S'Medical Appliances & Equipment'
p16
sS'shares_outstanding'
p17
S'   378,320,000'
p18
sb.