(istock_attributes
StockAttributes
p1
(dp2
S'sector'
p3
S'Services'
p4
sS'name'
p5
S'Sysco Corporation'
p6
sS'float_shares'
p7
S'   585,610,000'
p8
sS'symbol'
p9
S'SYY'
p10
sS'start_date'
p11
S'1973-05-08'
p12
sS'currency'
p13
S'USD'
p14
sS'industry'
p15
S'Food Wholesale'
p16
sS'shares_outstanding'
p17
S'   586,765,000'
p18
sb.