(istock_attributes
StockAttributes
p1
(dp2
S'sector'
p3
S'Technology'
p4
sS'name'
p5
S'AT&T Inc.'
p6
sS'float_shares'
p7
S'  5,177,896,000'
p8
sS'symbol'
p9
S'T'
sS'start_date'
p10
S'1984-07-19'
p11
sS'currency'
p12
S'USD'
p13
sS'industry'
p14
S'Telecom Services - Domestic'
p15
sS'shares_outstanding'
p16
S'  5,185,000,000'
p17
sb.