(istock_attributes
StockAttributes
p1
(dp2
S'sector'
p3
S'Consumer Goods'
p4
sS'name'
p5
S'Molson Coors Brew'
p6
sS'float_shares'
p7
S'   168,883,000'
p8
sS'symbol'
p9
S'TAP'
p10
sS'start_date'
p11
S'1990-01-02'
p12
sS'currency'
p13
S'USD'
p14
sS'industry'
p15
S'Beverages - Brewers'
p16
sS'shares_outstanding'
p17
S'   185,098,000'
p18
sb.