(istock_attributes
StockAttributes
p1
(dp2
S'sector'
p3
S'Technology'
p4
sS'name'
p5
S'Teradata Corporat'
p6
sS'float_shares'
p7
S'   153,705,000'
p8
sS'symbol'
p9
S'TDC'
p10
sS'start_date'
p11
S'2007-10-01'
p12
sS'currency'
p13
S'USD'
p14
sS'industry'
p15
S'Data Storage Devices'
p16
sS'shares_outstanding'
p17
S'   155,000,000'
p18
sb.