(istock_attributes
StockAttributes
p1
(dp2
S'sector'
p3
S'Basic Materials'
p4
sS'name'
p5
S'TECHNIP'
p6
sS'float_shares'
p7
S'   105,924,000'
p8
sS'symbol'
p9
S'TEC.PA'
p10
sS'start_date'
p11
S'2000-01-03'
p12
sS'currency'
p13
S'EUR'
p14
sS'industry'
p15
S'Oil & Gas Equipment & Services'
p16
sS'shares_outstanding'
p17
S'   119,636,000'
p18
sb.