(istock_attributes
StockAttributes
p1
(dp2
S'sector'
p3
S'Utilities'
p4
sS'name'
p5
S'Integrys Energy G'
p6
sS'float_shares'
p7
S'    78,741,000'
p8
sS'symbol'
p9
S'TEG'
p10
sS'start_date'
p11
S'1988-01-05'
p12
sS'currency'
p13
S'USD'
p14
sS'industry'
p15
S'Gas Utilities'
p16
sS'shares_outstanding'
p17
S'    79,529,000'
p18
sb.