(istock_attributes
StockAttributes
p1
(dp2
S'sector'
p3
S'Services'
p4
sS'name'
p5
S'Target Corporatio'
p6
sS'float_shares'
p7
S'   600,268,000'
p8
sS'symbol'
p9
S'TGT'
p10
sS'start_date'
p11
S'1983-04-06'
p12
sS'currency'
p13
S'USD'
p14
sS'industry'
p15
S'Discount, Variety Stores'
p16
sS'shares_outstanding'
p17
S'   633,716,000'
p18
sb.