(istock_attributes
StockAttributes
p1
(dp2
S'sector'
p3
S'Healthcare'
p4
sS'name'
p5
S'Tenet Healthcare'
p6
sS'float_shares'
p7
S'    82,666,000'
p8
sS'symbol'
p9
S'THC'
p10
sS'start_date'
p11
S'1982-01-04'
p12
sS'currency'
p13
S'USD'
p14
sS'industry'
p15
S'Hospitals'
p16
sS'shares_outstanding'
p17
S'    97,915,000'
p18
sb.