(istock_attributes
StockAttributes
p1
(dp2
S'sector'
p3
S'Services'
p4
sS'name'
p5
S'TJX Companies, In'
p6
sS'float_shares'
p7
S'   687,564,000'
p8
sS'symbol'
p9
S'TJX'
p10
sS'start_date'
p11
S'1988-01-05'
p12
sS'currency'
p13
S'USD'
p14
sS'industry'
p15
S'Department Stores'
p16
sS'shares_outstanding'
p17
S'   692,941,000'
p18
sb.