(istock_attributes
StockAttributes
p1
(dp2
S'sector'
p3
S'Basic Materials'
p4
sS'name'
p5
S'TULLOW OIL'
p6
sS'float_shares'
p7
S'   831,303,000'
p8
sS'symbol'
p9
S'TLW.L'
p10
sS'start_date'
p11
S'1989-03-29'
p12
sS'currency'
p13
S'GBp'
p14
sS'industry'
p15
S'Independent Oil & Gas'
p16
sS'shares_outstanding'
p17
S'   910,200,000'
p18
sb.