(istock_attributes
StockAttributes
p1
(dp2
S'sector'
p3
S'Financial'
p4
sS'name'
p5
S'Torchmark Corpora'
p6
sS'float_shares'
p7
S'   128,974,000'
p8
sS'symbol'
p9
S'TMK'
p10
sS'start_date'
p11
S'1987-12-30'
p12
sS'currency'
p13
S'USD'
p14
sS'industry'
p15
S'Life Insurance'
p16
sS'shares_outstanding'
p17
S'   131,876,000'
p18
sb.