(istock_attributes
StockAttributes
p1
(dp2
S'sector'
p3
S'Services'
p4
sS'name'
p5
S'Tractor Supply Co'
p6
sS'float_shares'
p7
S'   136,502,000'
p8
sS'symbol'
p9
S'TSCO'
p10
sS'start_date'
p11
S'1994-02-18'
p12
sS'currency'
p13
S'USD'
p14
sS'industry'
p15
S'Specialty Retail, Other'
p16
sS'shares_outstanding'
p17
S'   137,367,000'
p18
sb.