(istock_attributes
StockAttributes
p1
(dp2
S'sector'
p3
S'Services'
p4
sS'name'
p5
S'TESCO PLC'
p6
sS'float_shares'
p7
S'  7,796,220,000'
p8
sS'symbol'
p9
S'TSCO.L'
p10
sS'start_date'
p11
S'1988-07-01'
p12
sS'currency'
p13
S'GBp'
p14
sS'industry'
p15
S'Grocery Stores'
p16
sS'shares_outstanding'
p17
S'  8,103,000,000'
p18
sb.