(istock_attributes
StockAttributes
p1
(dp2
S'sector'
p3
S'Consumer Goods'
p4
sS'name'
p5
S'Tyson Foods, Inc.'
p6
sS'float_shares'
p7
S'   281,017,000'
p8
sS'symbol'
p9
S'TSN'
p10
sS'start_date'
p11
S'1986-07-09'
p12
sS'currency'
p13
S'USD'
p14
sS'industry'
p15
S'Meat Products'
p16
sS'shares_outstanding'
p17
S'   351,698,000'
p18
sb.