(istock_attributes
StockAttributes
p1
(dp2
S'sector'
p3
S'Basic Materials'
p4
sS'name'
p5
S'Tesoro Corporatio'
p6
sS'float_shares'
p7
S'   118,597,000'
p8
sS'symbol'
p9
S'TSO'
p10
sS'start_date'
p11
S'1983-04-06'
p12
sS'currency'
p13
S'USD'
p14
sS'industry'
p15
S'Oil & Gas Refining & Marketing'
p16
sS'shares_outstanding'
p17
S'   127,900,000'
p18
sb.