(istock_attributes
StockAttributes
p1
(dp2
S'sector'
p3
S'Financial'
p4
sS'name'
p5
S'Total System Serv'
p6
sS'float_shares'
p7
S'   178,396,000'
p8
sS'symbol'
p9
S'TSS'
p10
sS'start_date'
p11
S'1989-06-30'
p12
sS'currency'
p13
S'USD'
p14
sS'industry'
p15
S'Credit Services'
p16
sS'shares_outstanding'
p17
S'   183,692,000'
p18
sb.