(istock_attributes
StockAttributes
p1
(dp2
S'sector'
p3
S'Consumer Goods'
p4
sS'name'
p5
S'TUI TRAVEL'
p6
sS'float_shares'
p7
S'   544,259,000'
p8
sS'symbol'
p9
S'TT.L'
p10
sS'start_date'
p11
S'2000-01-04'
p12
sS'currency'
p13
S'GBp'
p14
sS'industry'
p15
S'Recreational Goods, Other'
p16
sS'shares_outstanding'
p17
S'  1,109,963,000'
p18
sb.