(istock_attributes
StockAttributes
p1
(dp2
S'sector'
p3
S'Services'
p4
sS'name'
p5
S'Time Warner Cable'
p6
sS'float_shares'
p7
S'   280,166,000'
p8
sS'symbol'
p9
S'TWC'
p10
sS'start_date'
p11
S'2007-01-10'
p12
sS'currency'
p13
S'USD'
p14
sS'industry'
p15
S'CATV Systems'
p16
sS'shares_outstanding'
p17
S'   280,494,000'
p18
sb.