(istock_attributes
StockAttributes
p1
(dp2
S'sector'
p3
S'Services'
p4
sS'name'
p5
S'Time Warner Inc.'
p6
sS'float_shares'
p7
S'   853,331,000'
p8
sS'symbol'
p9
S'TWX'
p10
sS'start_date'
p11
S'1992-03-19'
p12
sS'currency'
p13
S'USD'
p14
sS'industry'
p15
S'Entertainment - Diversified'
p16
sS'shares_outstanding'
p17
S'   854,835,000'
p18
sb.