(istock_attributes
StockAttributes
p1
(dp2
S'sector'
p3
S'Technology'
p4
sS'name'
p5
S'Texas Instruments'
p6
sS'float_shares'
p7
S'  1,051,631,000'
p8
sS'symbol'
p9
S'TXN'
p10
sS'start_date'
p11
S'1972-06-01'
p12
sS'currency'
p13
S'USD'
p14
sS'industry'
p15
S'Semiconductor - Broad Line'
p16
sS'shares_outstanding'
p17
S'  1,056,299,000'
p18
sb.