(istock_attributes
StockAttributes
p1
(dp2
S'sector'
p3
S'Industrial Goods'
p4
sS'name'
p5
S'Textron Inc. Comm'
p6
sS'float_shares'
p7
S'   275,148,000'
p8
sS'symbol'
p9
S'TXT'
p10
sS'start_date'
p11
S'1990-01-02'
p12
sS'currency'
p13
S'USD'
p14
sS'industry'
p15
S'Aerospace/Defense - Major Diversified'
p16
sS'shares_outstanding'
p17
S'   276,048,000'
p18
sb.