(istock_attributes
StockAttributes
p1
(dp2
S'sector'
p3
S'Consumer Goods'
p4
sS'name'
p5
S'Under Armour, Inc'
p6
sS'float_shares'
p7
S'   173,512,000'
p8
sS'symbol'
p9
S'UA'
p10
sS'start_date'
p11
S'2005-11-18'
p12
sS'currency'
p13
S'USD'
p14
sS'industry'
p15
S'Textile - Apparel Clothing'
p16
sS'shares_outstanding'
p17
S'   213,522,000'
p18
sb.