(istock_attributes
StockAttributes
p1
(dp2
S'sector'
p3
S'Healthcare'
p4
sS'name'
p5
S'Universal Health'
p6
sS'float_shares'
p7
S'    89,658,000'
p8
sS'symbol'
p9
S'UHS'
p10
sS'start_date'
p11
S'1990-03-26'
p12
sS'currency'
p13
S'USD'
p14
sS'industry'
p15
S'Hospitals'
p16
sS'shares_outstanding'
p17
S'    99,052,000'
p18
sb.