(istock_attributes
StockAttributes
p1
(dp2
S'sector'
p3
S'Consumer Goods'
p4
sS'name'
p5
S'UNILEVER'
p6
sS'float_shares'
p7
S'  2,803,304,000'
p8
sS'symbol'
p9
S'ULVR.L'
p10
sS'start_date'
p11
S'1988-07-01'
p12
sS'currency'
p13
S'GBp'
p14
sS'industry'
p15
S'Personal Products'
p16
sS'shares_outstanding'
p17
S'  2,840,399,000'
p18
sb.