(istock_attributes
StockAttributes
p1
(dp2
S'sector'
p3
S'Financial'
p4
sS'name'
p5
S'Unum Group Common'
p6
sS'float_shares'
p7
S'   250,618,000'
p8
sS'symbol'
p9
S'UNM'
p10
sS'start_date'
p11
S'1986-11-06'
p12
sS'currency'
p13
S'USD'
p14
sS'industry'
p15
S'Accident & Health Insurance'
p16
sS'shares_outstanding'
p17
S'   251,991,000'
p18
sb.