(istock_attributes
StockAttributes
p1
(dp2
S'sector'
p3
S'Services'
p4
sS'name'
p5
S'Urban Outfitters,'
p6
sS'float_shares'
p7
S'   100,919,000'
p8
sS'symbol'
p9
S'URBN'
p10
sS'start_date'
p11
S'1993-11-09'
p12
sS'currency'
p13
S'USD'
p14
sS'industry'
p15
S'Apparel Stores'
p16
sS'shares_outstanding'
p17
S'   134,336,000'
p18
sb.