(istock_attributes
StockAttributes
p1
(dp2
S'sector'
p3
S'Services'
p4
sS'name'
p5
S'United Rentals, I'
p6
sS'float_shares'
p7
S'    98,869,000'
p8
sS'symbol'
p9
S'URI'
p10
sS'start_date'
p11
S'1997-12-18'
p12
sS'currency'
p13
S'USD'
p14
sS'industry'
p15
S'Rental & Leasing Services'
p16
sS'shares_outstanding'
p17
S'    99,808,000'
p18
sb.