(istock_attributes
StockAttributes
p1
(dp2
S'sector'
p3
S'Financial'
p4
sS'name'
p5
S'U.S. Bancorp Comm'
p6
sS'float_shares'
p7
S'  1,790,799,000'
p8
sS'symbol'
p9
S'USB'
p10
sS'start_date'
p11
S'1987-11-05'
p12
sS'currency'
p13
S'USD'
p14
sS'industry'
p15
S'Regional - Midwest Banks'
p16
sS'shares_outstanding'
p17
S'  1,795,000,000'
p18
sb.