(istock_attributes
StockAttributes
p1
(dp2
S'sector'
p3
S'Utilities'
p4
sS'name'
p5
S'UNITED UTILITIES'
p6
sS'float_shares'
p7
S'   667,302,000'
p8
sS'symbol'
p9
S'UU.L'
p10
sS'start_date'
p11
S'1989-12-11'
p12
sS'currency'
p13
S'GBP'
p14
sS'industry'
p15
S'Water Utilities'
p16
sS'shares_outstanding'
p17
S'   681,888,000'
p18
sb.