(istock_attributes
StockAttributes
p1
(dp2
S'sector'
p3
S'Healthcare'
p4
sS'name'
p5
S'Varian Medical Sy'
p6
sS'float_shares'
p7
S'   101,903,000'
p8
sS'symbol'
p9
S'VAR'
p10
sS'start_date'
p11
S'1988-01-05'
p12
sS'currency'
p13
S'USD'
p14
sS'industry'
p15
S'Medical Appliances & Equipment'
p16
sS'shares_outstanding'
p17
S'   102,199,000'
p18
sb.