(istock_attributes
StockAttributes
p1
(dp2
S'sector'
p3
S'Industrial Goods'
p4
sS'name'
p5
S'VEOLIA ENVIRONN.'
p6
sS'float_shares'
p7
S'   385,102,000'
p8
sS'symbol'
p9
S'VIE.PA'
p10
sS'start_date'
p11
S'2000-07-20'
p12
sS'currency'
p13
S'EUR'
p14
sS'industry'
p15
S'Waste Management'
p16
sS'shares_outstanding'
p17
S'   548,063,000'
p18
sb.