(istock_attributes
StockAttributes
p1
(dp2
S'sector'
p3
S'Basic Materials'
p4
sS'name'
p5
S'VALLOUREC'
p6
sS'float_shares'
p7
S'   105,347,000'
p8
sS'symbol'
p9
S'VK.PA'
p10
sS'start_date'
p11
S'2000-01-03'
p12
sS'currency'
p13
S'EUR'
p14
sS'industry'
p15
S'Steel & Iron'
p16
sS'shares_outstanding'
p17
S'   125,000,000'
p18
sb.