(istock_attributes
StockAttributes
p1
(dp2
S'sector'
p3
S'Industrial Goods'
p4
sS'name'
p5
S'Vulcan Materials'
p6
sS'float_shares'
p7
S'   130,071,000'
p8
sS'symbol'
p9
S'VMC'
p10
sS'start_date'
p11
S'1988-01-05'
p12
sS'currency'
p13
S'USD'
p14
sS'industry'
p15
S'General Building Materials'
p16
sS'shares_outstanding'
p17
S'   130,910,000'
p18
sb.