(istock_attributes
StockAttributes
p1
(dp2
S'sector'
p3
S'Financial'
p4
sS'name'
p5
S'Vornado Realty Tr'
p6
sS'float_shares'
p7
S'   169,207,000'
p8
sS'symbol'
p9
S'VNO'
p10
sS'start_date'
p11
S'1988-01-05'
p12
sS'currency'
p13
S'USD'
p14
sS'industry'
p15
S'REIT - Diversified'
p16
sS'shares_outstanding'
p17
S'   187,664,000'
p18
sb.