(istock_attributes
StockAttributes
p1
(dp2
S'sector'
p3
S'N/A'
p4
sS'name'
p5
S'Vodafone Group Pl'
p6
sS'float_shares'
p7
S'  2,582,466,000'
p8
sS'symbol'
p9
S'VOD'
p10
sS'start_date'
p11
S'1988-12-16'
p12
sS'currency'
p13
S'USD'
p14
sS'industry'
p15
S'N/A'
p16
sS'shares_outstanding'
p17
S'  2,647,000,000'
p18
sb.