(istock_attributes
StockAttributes
p1
(dp2
S'sector'
p3
S'Technology'
p4
sS'name'
p5
S'VODAFONE GROUP'
p6
sS'float_shares'
p7
S' 25,824,661,000'
p8
sS'symbol'
p9
S'VOD.L'
p10
sS'start_date'
p11
S'1990-01-01'
p12
sS'currency'
p13
S'GBP'
p14
sS'industry'
p15
S'Wireless Communications'
p16
sS'shares_outstanding'
p17
S' 26,470,000,000'
p18
sb.