(istock_attributes
StockAttributes
p1
(dp2
S'sector'
p3
S'Consumer Goods'
p4
sS'name'
p5
S'VOLKSWAGEN VZ'
p6
sS'float_shares'
p7
S'   139,584,000'
p8
sS'symbol'
p9
S'VOW3.DE'
p10
sS'start_date'
p11
S'2007-12-28'
p12
sS'currency'
p13
S'EUR'
p14
sS'industry'
p15
S'Auto Manufacturers - Major'
p16
sS'shares_outstanding'
p17
S'   475,731,000'
p18
sb.