(istock_attributes
StockAttributes
p1
(dp2
S'sector'
p3
S'Technology'
p4
sS'name'
p5
S'VeriSign, Inc.'
p6
sS'float_shares'
p7
S'   120,223,000'
p8
sS'symbol'
p9
S'VRSN'
p10
sS'start_date'
p11
S'1998-01-30'
p12
sS'currency'
p13
S'USD'
p14
sS'industry'
p15
S'Internet Information Providers'
p16
sS'shares_outstanding'
p17
S'   121,090,000'
p18
sb.