(istock_attributes
StockAttributes
p1
(dp2
S'sector'
p3
S'Services'
p4
sS'name'
p5
S'Walgreen Co. Comm'
p6
sS'float_shares'
p7
S'   875,068,000'
p8
sS'symbol'
p9
S'WAG'
p10
sS'start_date'
p11
S'1985-07-01'
p12
sS'currency'
p13
S'USD'
p14
sS'industry'
p15
S'Drug Stores'
p16
sS'shares_outstanding'
p17
S'   950,386,000'
p18
sb.