(istock_attributes
StockAttributes
p1
(dp2
S'sector'
p3
S'Services'
p4
sS'name'
p5
S'Whole Foods Marke'
p6
sS'float_shares'
p7
S'   357,802,000'
p8
sS'symbol'
p9
S'WFM'
p10
sS'start_date'
p11
S'1992-01-23'
p12
sS'currency'
p13
S'USD'
p14
sS'industry'
p15
S'Grocery Stores'
p16
sS'shares_outstanding'
p17
S'   361,245,000'
p18
sb.