(istock_attributes
StockAttributes
p1
(dp2
S'sector'
p3
S'Industrial Goods'
p4
sS'name'
p5
S'Waste Management,'
p6
sS'float_shares'
p7
S'   456,473,000'
p8
sS'symbol'
p9
S'WM'
p10
sS'start_date'
p11
S'1991-09-30'
p12
sS'currency'
p13
S'USD'
p14
sS'industry'
p15
S'Waste Management'
p16
sS'shares_outstanding'
p17
S'   457,920,000'
p18
sb.