(istock_attributes
StockAttributes
p1
(dp2
S'sector'
p3
S'Basic Materials'
p4
sS'name'
p5
S'Williams Companie'
p6
sS'float_shares'
p7
S'   703,683,000'
p8
sS'symbol'
p9
S'WMB'
p10
sS'start_date'
p11
S'1981-12-31'
p12
sS'currency'
p13
S'USD'
p14
sS'industry'
p15
S'Oil & Gas Pipelines'
p16
sS'shares_outstanding'
p17
S'   747,462,000'
p18
sb.