(istock_attributes
StockAttributes
p1
(dp2
S'sector'
p3
S'Industrial Goods'
p4
sS'name'
p5
S'WOLSELEY'
p6
sS'float_shares'
p7
S'   249,822,000'
p8
sS'symbol'
p9
S'WOS.L'
p10
sS'start_date'
p11
S'1988-07-01'
p12
sS'currency'
p13
S'GBP'
p14
sS'industry'
p15
S'General Building Materials'
p16
sS'shares_outstanding'
p17
S'   263,570,000'
p18
sb.