(istock_attributes
StockAttributes
p1
(dp2
S'sector'
p3
S'Consumer Goods'
p4
sS'name'
p5
S'Wausau Paper Corp'
p6
sS'float_shares'
p7
S'    34,396,000'
p8
sS'symbol'
p9
S'WPP'
p10
sS'start_date'
p11
S'1990-03-26'
p12
sS'currency'
p13
S'USD'
p14
sS'industry'
p15
S'Paper & Paper Products'
p16
sS'shares_outstanding'
p17
S'    50,001,000'
p18
sb.