(istock_attributes
StockAttributes
p1
(dp2
S'sector'
p3
S'Services'
p4
sS'name'
p5
S'WPP'
p6
sS'float_shares'
p7
S'  1,274,563,000'
p8
sS'symbol'
p9
S'WPP.L'
p10
sS'start_date'
p11
S'1995-03-24'
p12
sS'currency'
p13
S'GBP'
p14
sS'industry'
p15
S'Advertising Agencies'
p16
sS'shares_outstanding'
p17
S'  1,318,699,000'
p18
sb.
