(istock_attributes
StockAttributes
p1
(dp2
S'sector'
p3
S'Financial'
p4
sS'name'
p5
S'Western Union Com'
p6
sS'float_shares'
p7
S'   521,728,000'
p8
sS'symbol'
p9
S'WU'
p10
sS'start_date'
p11
S'2006-10-02'
p12
sS'currency'
p13
S'USD'
p14
sS'industry'
p15
S'Credit Services'
p16
sS'shares_outstanding'
p17
S'   522,627,000'
p18
sb.