(istock_attributes
StockAttributes
p1
(dp2
S'sector'
p3
S'Services'
p4
sS'name'
p5
S'Wyndham Worldwide'
p6
sS'float_shares'
p7
S'   121,631,000'
p8
sS'symbol'
p9
S'WYN'
p10
sS'start_date'
p11
S'2006-07-19'
p12
sS'currency'
p13
S'USD'
p14
sS'industry'
p15
S'Lodging'
p16
sS'shares_outstanding'
p17
S'   123,000,000'
p18
sb.