(istock_attributes
StockAttributes
p1
(dp2
S'sector'
p3
S'Services'
p4
sS'name'
p5
S'Wynn Resorts, Lim'
p6
sS'float_shares'
p7
S'    80,615,000'
p8
sS'symbol'
p9
S'WYNN'
p10
sS'start_date'
p11
S'2002-10-25'
p12
sS'currency'
p13
S'USD'
p14
sS'industry'
p15
S'Resorts & Casinos'
p16
sS'shares_outstanding'
p17
S'   100,958,000'
p18
sb.