(istock_attributes
StockAttributes
p1
(dp2
S'sector'
p3
S'Technology'
p4
sS'name'
p5
S'Xilinx, Inc.'
p6
sS'float_shares'
p7
S'   263,048,000'
p8
sS'symbol'
p9
S'XLNX'
p10
sS'start_date'
p11
S'1990-06-18'
p12
sS'currency'
p13
S'USD'
p14
sS'industry'
p15
S'Semiconductor - Integrated Circuits'
p16
sS'shares_outstanding'
p17
S'   264,455,000'
p18
sb.