(istock_attributes
StockAttributes
p1
(dp2
S'sector'
p3
S'Basic Materials'
p4
sS'name'
p5
S'Exxon Mobil Corpo'
p6
sS'float_shares'
p7
S'  4,222,337,000'
p8
sS'symbol'
p9
S'XOM'
p10
sS'start_date'
p11
S'1970-01-02'
p12
sS'currency'
p13
S'USD'
p14
sS'industry'
p15
S'Major Integrated Oil & Gas'
p16
sS'shares_outstanding'
p17
S'  4,235,000,000'
p18
sb.