(istock_attributes
StockAttributes
p1
(dp2
S'sector'
p3
S'Healthcare'
p4
sS'name'
p5
S'DENTSPLY Internat'
p6
sS'float_shares'
p7
S'   132,525,000'
p8
sS'symbol'
p9
S'XRAY'
p10
sS'start_date'
p11
S'1991-04-25'
p12
sS'currency'
p13
S'USD'
p14
sS'industry'
p15
S'Medical Instruments & Supplies'
p16
sS'shares_outstanding'
p17
S'   141,529,000'
p18
sb.