(istock_attributes
StockAttributes
p1
(dp2
S'sector'
p3
S'Technology'
p4
sS'name'
p5
S'Xerox Corporation'
p6
sS'float_shares'
p7
S'  1,072,274,000'
p8
sS'symbol'
p9
S'XRX'
p10
sS'start_date'
p11
S'1977-01-03'
p12
sS'currency'
p13
S'USD'
p14
sS'industry'
p15
S'Information Technology Services'
p16
sS'shares_outstanding'
p17
S'  1,141,555,000'
p18
sb.