(istock_attributes
StockAttributes
p1
(dp2
S'sector'
p3
S'Industrial Goods'
p4
sS'name'
p5
S'Xylem Inc. Common'
p6
sS'float_shares'
p7
S'   180,515,000'
p8
sS'symbol'
p9
S'XYL'
p10
sS'start_date'
p11
S'2011-10-13'
p12
sS'currency'
p13
S'USD'
p14
sS'industry'
p15
S'Diversified Machinery'
p16
sS'shares_outstanding'
p17
S'   181,874,000'
p18
sb.