(istock_attributes
StockAttributes
p1
(dp2
S'sector'
p3
S'Technology'
p4
sS'name'
p5
S'Yahoo! Inc.'
p6
sS'float_shares'
p7
S'   905,388,000'
p8
sS'symbol'
p9
S'YHOO'
p10
sS'start_date'
p11
S'1996-04-12'
p12
sS'currency'
p13
S'USD'
p14
sS'industry'
p15
S'Internet Information Providers'
p16
sS'shares_outstanding'
p17
S'   979,000,000'
p18
sb.