(istock_attributes
StockAttributes
p1
(dp2
S'sector'
p3
S'Healthcare'
p4
sS'name'
p5
S'Zimmer Holdings,'
p6
sS'float_shares'
p7
S'   168,634,000'
p8
sS'symbol'
p9
S'ZMH'
p10
sS'start_date'
p11
S'2001-07-25'
p12
sS'currency'
p13
S'USD'
p14
sS'industry'
p15
S'Medical Appliances & Equipment'
p16
sS'shares_outstanding'
p17
S'   169,000,000'
p18
sb.