(dp1
S'min_nb_returns_stocks'
p2
I5000
sS'index_name'
p3
S'SP500'
p4
sS'start_date'
p5
cdatetime
date
p6
(S'\x07\xd1\x01\x02'
tRp7
sS'end_date'
p8
cdatetime
datetime
p9
(S'\x07\xde\x0c\x1f\x00\x00\x00\x00\x00\x00'
tRp10
sS'nb_returns'
p11
I3607
s.